
build/joystick.elf:     file format elf32-littleriscv


Disassembly of section .init:

00000000 <InterruptVector>:
   0:	36a0106f          	j	136a <handle_reset>
   4:	00000000          	.word	0x00000000
   8:	000013e0          	.word	0x000013e0
   c:	000013de          	.word	0x000013de
	...
  30:	000013de          	.word	0x000013de
  34:	00000000          	.word	0x00000000
  38:	000013de          	.word	0x000013de
  3c:	00000000          	.word	0x00000000
  40:	000013de          	.word	0x000013de
  44:	000013de          	.word	0x000013de
  48:	000013de          	.word	0x000013de
  4c:	000013de          	.word	0x000013de
  50:	000013de          	.word	0x000013de
  54:	000013de          	.word	0x000013de
  58:	000013de          	.word	0x000013de
  5c:	000013de          	.word	0x000013de
  60:	000013de          	.word	0x000013de
  64:	000013de          	.word	0x000013de
  68:	000013de          	.word	0x000013de
  6c:	000013de          	.word	0x000013de
  70:	000013de          	.word	0x000013de
  74:	000013de          	.word	0x000013de
  78:	000013de          	.word	0x000013de
  7c:	000013de          	.word	0x000013de
  80:	000013de          	.word	0x000013de
  84:	000013de          	.word	0x000013de
  88:	000013de          	.word	0x000013de
  8c:	000013de          	.word	0x000013de
  90:	000013de          	.word	0x000013de
  94:	000013de          	.word	0x000013de
  98:	000013de          	.word	0x000013de
  9c:	0000                	.insn	2, 0x
	...

Disassembly of section .text:

000000a0 <__divdf3>:
      a0:	fc410113          	addi	sp,sp,-60
      a4:	d826                	sw	s1,48(sp)
      a6:	84ae                	mv	s1,a1
      a8:	00c59713          	slli	a4,a1,0xc
      ac:	01f4d793          	srli	a5,s1,0x1f
      b0:	81d1                	srli	a1,a1,0x14
      b2:	da22                	sw	s0,52(sp)
      b4:	832a                	mv	t1,a0
      b6:	842a                	mv	s0,a0
      b8:	dc06                	sw	ra,56(sp)
      ba:	7ff5f513          	andi	a0,a1,2047
      be:	c03e                	sw	a5,0(sp)
      c0:	8331                	srli	a4,a4,0xc
      c2:	c541                	beqz	a0,14a <__divdf3+0xaa>
      c4:	7ff00793          	li	a5,2047
      c8:	0ef50a63          	beq	a0,a5,1bc <__divdf3+0x11c>
      cc:	070e                	slli	a4,a4,0x3
      ce:	01d35793          	srli	a5,t1,0x1d
      d2:	8fd9                	or	a5,a5,a4
      d4:	00800737          	lui	a4,0x800
      d8:	8fd9                	or	a5,a5,a4
      da:	00331413          	slli	s0,t1,0x3
      de:	c0150593          	addi	a1,a0,-1023
      e2:	4481                	li	s1,0
      e4:	00c69713          	slli	a4,a3,0xc
      e8:	00c75393          	srli	t2,a4,0xc
      ec:	0146d713          	srli	a4,a3,0x14
      f0:	82fd                	srli	a3,a3,0x1f
      f2:	7ff77713          	andi	a4,a4,2047
      f6:	c236                	sw	a3,4(sp)
      f8:	c37d                	beqz	a4,1de <__divdf3+0x13e>
      fa:	7ff00693          	li	a3,2047
      fe:	14d70c63          	beq	a4,a3,256 <__divdf3+0x1b6>
     102:	00339513          	slli	a0,t2,0x3
     106:	01d65693          	srli	a3,a2,0x1d
     10a:	8ec9                	or	a3,a3,a0
     10c:	00800537          	lui	a0,0x800
     110:	00a6e3b3          	or	t2,a3,a0
     114:	00361693          	slli	a3,a2,0x3
     118:	c0170613          	addi	a2,a4,-1023 # 7ffc01 <lib_gpioctrl.c.91833d69+0x7fd7c7>
     11c:	4501                	li	a0,0
     11e:	4702                	lw	a4,0(sp)
     120:	4312                	lw	t1,4(sp)
     122:	00674733          	xor	a4,a4,t1
     126:	c63a                	sw	a4,12(sp)
     128:	40c58733          	sub	a4,a1,a2
     12c:	c43a                	sw	a4,8(sp)
     12e:	00249713          	slli	a4,s1,0x2
     132:	8f49                	or	a4,a4,a0
     134:	177d                	addi	a4,a4,-1
     136:	4639                	li	a2,14
     138:	16e66063          	bltu	a2,a4,298 <__divdf3+0x1f8>
     13c:	6605                	lui	a2,0x1
     13e:	070a                	slli	a4,a4,0x2
     140:	79060613          	addi	a2,a2,1936 # 1790 <main+0x124>
     144:	9732                	add	a4,a4,a2
     146:	4318                	lw	a4,0(a4)
     148:	8702                	jr	a4
     14a:	006767b3          	or	a5,a4,t1
     14e:	cfbd                	beqz	a5,1cc <__divdf3+0x12c>
     150:	c836                	sw	a3,16(sp)
     152:	c632                	sw	a2,12(sp)
     154:	cf1d                	beqz	a4,192 <__divdf3+0xf2>
     156:	853a                	mv	a0,a4
     158:	c41a                	sw	t1,8(sp)
     15a:	c23a                	sw	a4,4(sp)
     15c:	66b000ef          	jal	fc6 <__clzsi2>
     160:	4712                	lw	a4,4(sp)
     162:	4322                	lw	t1,8(sp)
     164:	4632                	lw	a2,12(sp)
     166:	46c2                	lw	a3,16(sp)
     168:	82aa                	mv	t0,a0
     16a:	ff550393          	addi	t2,a0,-11 # 7ffff5 <lib_gpioctrl.c.91833d69+0x7fdbbb>
     16e:	47f5                	li	a5,29
     170:	ff828593          	addi	a1,t0,-8
     174:	407787b3          	sub	a5,a5,t2
     178:	00b71733          	sll	a4,a4,a1
     17c:	00f357b3          	srl	a5,t1,a5
     180:	8fd9                	or	a5,a5,a4
     182:	00b31733          	sll	a4,t1,a1
     186:	c0d00593          	li	a1,-1011
     18a:	405585b3          	sub	a1,a1,t0
     18e:	843a                	mv	s0,a4
     190:	bf89                	j	e2 <__divdf3+0x42>
     192:	851a                	mv	a0,t1
     194:	c43a                	sw	a4,8(sp)
     196:	c21a                	sw	t1,4(sp)
     198:	62f000ef          	jal	fc6 <__clzsi2>
     19c:	01550393          	addi	t2,a0,21
     1a0:	47f1                	li	a5,28
     1a2:	4312                	lw	t1,4(sp)
     1a4:	4722                	lw	a4,8(sp)
     1a6:	4632                	lw	a2,12(sp)
     1a8:	46c2                	lw	a3,16(sp)
     1aa:	02050293          	addi	t0,a0,32
     1ae:	fc77d0e3          	bge	a5,t2,16e <__divdf3+0xce>
     1b2:	ff850793          	addi	a5,a0,-8
     1b6:	00f317b3          	sll	a5,t1,a5
     1ba:	b7f1                	j	186 <__divdf3+0xe6>
     1bc:	006767b3          	or	a5,a4,t1
     1c0:	cb91                	beqz	a5,1d4 <__divdf3+0x134>
     1c2:	87ba                	mv	a5,a4
     1c4:	7ff00593          	li	a1,2047
     1c8:	448d                	li	s1,3
     1ca:	bf29                	j	e4 <__divdf3+0x44>
     1cc:	4401                	li	s0,0
     1ce:	4581                	li	a1,0
     1d0:	4485                	li	s1,1
     1d2:	bf09                	j	e4 <__divdf3+0x44>
     1d4:	4401                	li	s0,0
     1d6:	7ff00593          	li	a1,2047
     1da:	4489                	li	s1,2
     1dc:	b721                	j	e4 <__divdf3+0x44>
     1de:	00c3e6b3          	or	a3,t2,a2
     1e2:	c2d1                	beqz	a3,266 <__divdf3+0x1c6>
     1e4:	04038363          	beqz	t2,22a <__divdf3+0x18a>
     1e8:	851e                	mv	a0,t2
     1ea:	ca32                	sw	a2,20(sp)
     1ec:	c82e                	sw	a1,16(sp)
     1ee:	c63e                	sw	a5,12(sp)
     1f0:	c41e                	sw	t2,8(sp)
     1f2:	5d5000ef          	jal	fc6 <__clzsi2>
     1f6:	43a2                	lw	t2,8(sp)
     1f8:	47b2                	lw	a5,12(sp)
     1fa:	45c2                	lw	a1,16(sp)
     1fc:	4652                	lw	a2,20(sp)
     1fe:	86aa                	mv	a3,a0
     200:	ff550293          	addi	t0,a0,-11
     204:	4775                	li	a4,29
     206:	ff868513          	addi	a0,a3,-8
     20a:	40570733          	sub	a4,a4,t0
     20e:	00a393b3          	sll	t2,t2,a0
     212:	00e65733          	srl	a4,a2,a4
     216:	00776733          	or	a4,a4,t2
     21a:	00a613b3          	sll	t2,a2,a0
     21e:	c0d00613          	li	a2,-1011
     222:	8e15                	sub	a2,a2,a3
     224:	869e                	mv	a3,t2
     226:	83ba                	mv	t2,a4
     228:	bdd5                	j	11c <__divdf3+0x7c>
     22a:	8532                	mv	a0,a2
     22c:	ca1e                	sw	t2,20(sp)
     22e:	c82e                	sw	a1,16(sp)
     230:	c63e                	sw	a5,12(sp)
     232:	c432                	sw	a2,8(sp)
     234:	593000ef          	jal	fc6 <__clzsi2>
     238:	01550293          	addi	t0,a0,21
     23c:	4771                	li	a4,28
     23e:	4622                	lw	a2,8(sp)
     240:	47b2                	lw	a5,12(sp)
     242:	45c2                	lw	a1,16(sp)
     244:	43d2                	lw	t2,20(sp)
     246:	02050693          	addi	a3,a0,32
     24a:	fa575de3          	bge	a4,t0,204 <__divdf3+0x164>
     24e:	1561                	addi	a0,a0,-8
     250:	00a61733          	sll	a4,a2,a0
     254:	b7e9                	j	21e <__divdf3+0x17e>
     256:	00c3e6b3          	or	a3,t2,a2
     25a:	ca91                	beqz	a3,26e <__divdf3+0x1ce>
     25c:	86b2                	mv	a3,a2
     25e:	450d                	li	a0,3
     260:	7ff00613          	li	a2,2047
     264:	bd6d                	j	11e <__divdf3+0x7e>
     266:	4381                	li	t2,0
     268:	4601                	li	a2,0
     26a:	4505                	li	a0,1
     26c:	bd4d                	j	11e <__divdf3+0x7e>
     26e:	4381                	li	t2,0
     270:	7ff00613          	li	a2,2047
     274:	4509                	li	a0,2
     276:	b565                	j	11e <__divdf3+0x7e>
     278:	4702                	lw	a4,0(sp)
     27a:	83be                	mv	t2,a5
     27c:	86a2                	mv	a3,s0
     27e:	c63a                	sw	a4,12(sp)
     280:	4789                	li	a5,2
     282:	42f48763          	beq	s1,a5,6b0 <__divdf3+0x610>
     286:	478d                	li	a5,3
     288:	40f48d63          	beq	s1,a5,6a2 <__divdf3+0x602>
     28c:	4785                	li	a5,1
     28e:	2ef49b63          	bne	s1,a5,584 <__divdf3+0x4e4>
     292:	4381                	li	t2,0
     294:	4681                	li	a3,0
     296:	aef9                	j	674 <__divdf3+0x5d4>
     298:	00f3e663          	bltu	t2,a5,2a4 <__divdf3+0x204>
     29c:	36779163          	bne	a5,t2,5fe <__divdf3+0x55e>
     2a0:	34d46f63          	bltu	s0,a3,5fe <__divdf3+0x55e>
     2a4:	01f79593          	slli	a1,a5,0x1f
     2a8:	00145613          	srli	a2,s0,0x1
     2ac:	01f41713          	slli	a4,s0,0x1f
     2b0:	8385                	srli	a5,a5,0x1
     2b2:	00c5e433          	or	s0,a1,a2
     2b6:	00839613          	slli	a2,t2,0x8
     2ba:	d03a                	sw	a4,32(sp)
     2bc:	00869713          	slli	a4,a3,0x8
     2c0:	c03a                	sw	a4,0(sp)
     2c2:	01065713          	srli	a4,a2,0x10
     2c6:	0186d593          	srli	a1,a3,0x18
     2ca:	c23a                	sw	a4,4(sp)
     2cc:	00c5e333          	or	t1,a1,a2
     2d0:	4592                	lw	a1,4(sp)
     2d2:	01031713          	slli	a4,t1,0x10
     2d6:	8341                	srli	a4,a4,0x10
     2d8:	853e                	mv	a0,a5
     2da:	ce1a                	sw	t1,28(sp)
     2dc:	cc3a                	sw	a4,24(sp)
     2de:	ca3e                	sw	a5,20(sp)
     2e0:	471000ef          	jal	f50 <__hidden___udivsi3>
     2e4:	85aa                	mv	a1,a0
     2e6:	c82a                	sw	a0,16(sp)
     2e8:	4562                	lw	a0,24(sp)
     2ea:	447000ef          	jal	f30 <__mulsi3>
     2ee:	47d2                	lw	a5,20(sp)
     2f0:	4592                	lw	a1,4(sp)
     2f2:	84aa                	mv	s1,a0
     2f4:	853e                	mv	a0,a5
     2f6:	487000ef          	jal	f7c <__umodsi3>
     2fa:	46c2                	lw	a3,16(sp)
     2fc:	0542                	slli	a0,a0,0x10
     2fe:	01045613          	srli	a2,s0,0x10
     302:	8e49                	or	a2,a2,a0
     304:	4372                	lw	t1,28(sp)
     306:	5702                	lw	a4,32(sp)
     308:	87b6                	mv	a5,a3
     30a:	00967c63          	bgeu	a2,s1,322 <__divdf3+0x282>
     30e:	961a                	add	a2,a2,t1
     310:	fff68793          	addi	a5,a3,-1
     314:	00666763          	bltu	a2,t1,322 <__divdf3+0x282>
     318:	00967563          	bgeu	a2,s1,322 <__divdf3+0x282>
     31c:	ffe68793          	addi	a5,a3,-2
     320:	961a                	add	a2,a2,t1
     322:	4592                	lw	a1,4(sp)
     324:	d03e                	sw	a5,32(sp)
     326:	409607b3          	sub	a5,a2,s1
     32a:	853e                	mv	a0,a5
     32c:	d21a                	sw	t1,36(sp)
     32e:	ce3a                	sw	a4,28(sp)
     330:	c83e                	sw	a5,16(sp)
     332:	41f000ef          	jal	f50 <__hidden___udivsi3>
     336:	85aa                	mv	a1,a0
     338:	ca2a                	sw	a0,20(sp)
     33a:	4562                	lw	a0,24(sp)
     33c:	0442                	slli	s0,s0,0x10
     33e:	8041                	srli	s0,s0,0x10
     340:	3f1000ef          	jal	f30 <__mulsi3>
     344:	4592                	lw	a1,4(sp)
     346:	84aa                	mv	s1,a0
     348:	4542                	lw	a0,16(sp)
     34a:	433000ef          	jal	f7c <__umodsi3>
     34e:	4652                	lw	a2,20(sp)
     350:	0542                	slli	a0,a0,0x10
     352:	8c49                	or	s0,s0,a0
     354:	4772                	lw	a4,28(sp)
     356:	5782                	lw	a5,32(sp)
     358:	5312                	lw	t1,36(sp)
     35a:	85b2                	mv	a1,a2
     35c:	00947c63          	bgeu	s0,s1,374 <__divdf3+0x2d4>
     360:	941a                	add	s0,s0,t1
     362:	fff60593          	addi	a1,a2,-1
     366:	00646763          	bltu	s0,t1,374 <__divdf3+0x2d4>
     36a:	00947563          	bgeu	s0,s1,374 <__divdf3+0x2d4>
     36e:	ffe60593          	addi	a1,a2,-2
     372:	941a                	add	s0,s0,t1
     374:	07c2                	slli	a5,a5,0x10
     376:	00b7e2b3          	or	t0,a5,a1
     37a:	4782                	lw	a5,0(sp)
     37c:	4602                	lw	a2,0(sp)
     37e:	63c1                	lui	t2,0x10
     380:	fff38693          	addi	a3,t2,-1 # ffff <lib_gpioctrl.c.91833d69+0xdbc5>
     384:	83c1                	srli	a5,a5,0x10
     386:	c83e                	sw	a5,16(sp)
     388:	00d2f7b3          	and	a5,t0,a3
     38c:	8ef1                	and	a3,a3,a2
     38e:	8c05                	sub	s0,s0,s1
     390:	853e                	mv	a0,a5
     392:	ca36                	sw	a3,20(sp)
     394:	85b6                	mv	a1,a3
     396:	39b000ef          	jal	f30 <__mulsi3>
     39a:	84aa                	mv	s1,a0
     39c:	45c2                	lw	a1,16(sp)
     39e:	853e                	mv	a0,a5
     3a0:	391000ef          	jal	f30 <__mulsi3>
     3a4:	87aa                	mv	a5,a0
     3a6:	45d2                	lw	a1,20(sp)
     3a8:	0102d513          	srli	a0,t0,0x10
     3ac:	385000ef          	jal	f30 <__mulsi3>
     3b0:	ce2a                	sw	a0,28(sp)
     3b2:	45c2                	lw	a1,16(sp)
     3b4:	0102d513          	srli	a0,t0,0x10
     3b8:	379000ef          	jal	f30 <__mulsi3>
     3bc:	4672                	lw	a2,28(sp)
     3be:	0104d693          	srli	a3,s1,0x10
     3c2:	97b2                	add	a5,a5,a2
     3c4:	97b6                	add	a5,a5,a3
     3c6:	00c7f363          	bgeu	a5,a2,3cc <__divdf3+0x32c>
     3ca:	951e                	add	a0,a0,t2
     3cc:	0107d693          	srli	a3,a5,0x10
     3d0:	9536                	add	a0,a0,a3
     3d2:	66c1                	lui	a3,0x10
     3d4:	16fd                	addi	a3,a3,-1 # ffff <lib_gpioctrl.c.91833d69+0xdbc5>
     3d6:	8ff5                	and	a5,a5,a3
     3d8:	07c2                	slli	a5,a5,0x10
     3da:	8cf5                	and	s1,s1,a3
     3dc:	94be                	add	s1,s1,a5
     3de:	00a46763          	bltu	s0,a0,3ec <__divdf3+0x34c>
     3e2:	8396                	mv	t2,t0
     3e4:	04a41363          	bne	s0,a0,42a <__divdf3+0x38a>
     3e8:	04977163          	bgeu	a4,s1,42a <__divdf3+0x38a>
     3ec:	4782                	lw	a5,0(sp)
     3ee:	fff28393          	addi	t2,t0,-1
     3f2:	97ba                	add	a5,a5,a4
     3f4:	00e7b6b3          	sltu	a3,a5,a4
     3f8:	00668633          	add	a2,a3,t1
     3fc:	9432                	add	s0,s0,a2
     3fe:	873e                	mv	a4,a5
     400:	00836563          	bltu	t1,s0,40a <__divdf3+0x36a>
     404:	02831363          	bne	t1,s0,42a <__divdf3+0x38a>
     408:	e28d                	bnez	a3,42a <__divdf3+0x38a>
     40a:	00a46663          	bltu	s0,a0,416 <__divdf3+0x376>
     40e:	00851e63          	bne	a0,s0,42a <__divdf3+0x38a>
     412:	0097fc63          	bgeu	a5,s1,42a <__divdf3+0x38a>
     416:	4702                	lw	a4,0(sp)
     418:	ffe28393          	addi	t2,t0,-2
     41c:	97ba                	add	a5,a5,a4
     41e:	873e                	mv	a4,a5
     420:	4782                	lw	a5,0(sp)
     422:	00f737b3          	sltu	a5,a4,a5
     426:	979a                	add	a5,a5,t1
     428:	943e                	add	s0,s0,a5
     42a:	409704b3          	sub	s1,a4,s1
     42e:	8c09                	sub	s0,s0,a0
     430:	00973733          	sltu	a4,a4,s1
     434:	8c19                	sub	s0,s0,a4
     436:	d41a                	sw	t1,40(sp)
     438:	56fd                	li	a3,-1
     43a:	14830563          	beq	t1,s0,584 <__divdf3+0x4e4>
     43e:	4592                	lw	a1,4(sp)
     440:	8522                	mv	a0,s0
     442:	d21e                	sw	t2,36(sp)
     444:	30d000ef          	jal	f50 <__hidden___udivsi3>
     448:	85aa                	mv	a1,a0
     44a:	d02a                	sw	a0,32(sp)
     44c:	4562                	lw	a0,24(sp)
     44e:	2e3000ef          	jal	f30 <__mulsi3>
     452:	4592                	lw	a1,4(sp)
     454:	ce2a                	sw	a0,28(sp)
     456:	8522                	mv	a0,s0
     458:	325000ef          	jal	f7c <__umodsi3>
     45c:	5682                	lw	a3,32(sp)
     45e:	47f2                	lw	a5,28(sp)
     460:	0542                	slli	a0,a0,0x10
     462:	0104d413          	srli	s0,s1,0x10
     466:	8c49                	or	s0,s0,a0
     468:	5392                	lw	t2,36(sp)
     46a:	5322                	lw	t1,40(sp)
     46c:	8736                	mv	a4,a3
     46e:	00f47c63          	bgeu	s0,a5,486 <__divdf3+0x3e6>
     472:	941a                	add	s0,s0,t1
     474:	fff68713          	addi	a4,a3,-1
     478:	00646763          	bltu	s0,t1,486 <__divdf3+0x3e6>
     47c:	00f47563          	bgeu	s0,a5,486 <__divdf3+0x3e6>
     480:	ffe68713          	addi	a4,a3,-2
     484:	941a                	add	s0,s0,t1
     486:	4592                	lw	a1,4(sp)
     488:	40f407b3          	sub	a5,s0,a5
     48c:	853e                	mv	a0,a5
     48e:	d61a                	sw	t1,44(sp)
     490:	d43a                	sw	a4,40(sp)
     492:	d21e                	sw	t2,36(sp)
     494:	ce3e                	sw	a5,28(sp)
     496:	2bb000ef          	jal	f50 <__hidden___udivsi3>
     49a:	85aa                	mv	a1,a0
     49c:	d02a                	sw	a0,32(sp)
     49e:	4562                	lw	a0,24(sp)
     4a0:	291000ef          	jal	f30 <__mulsi3>
     4a4:	4592                	lw	a1,4(sp)
     4a6:	842a                	mv	s0,a0
     4a8:	4572                	lw	a0,28(sp)
     4aa:	2d3000ef          	jal	f7c <__umodsi3>
     4ae:	5602                	lw	a2,32(sp)
     4b0:	01049793          	slli	a5,s1,0x10
     4b4:	0542                	slli	a0,a0,0x10
     4b6:	83c1                	srli	a5,a5,0x10
     4b8:	8fc9                	or	a5,a5,a0
     4ba:	5392                	lw	t2,36(sp)
     4bc:	5722                	lw	a4,40(sp)
     4be:	5332                	lw	t1,44(sp)
     4c0:	85b2                	mv	a1,a2
     4c2:	0087fc63          	bgeu	a5,s0,4da <__divdf3+0x43a>
     4c6:	979a                	add	a5,a5,t1
     4c8:	fff60593          	addi	a1,a2,-1
     4cc:	0067e763          	bltu	a5,t1,4da <__divdf3+0x43a>
     4d0:	0087f563          	bgeu	a5,s0,4da <__divdf3+0x43a>
     4d4:	ffe60593          	addi	a1,a2,-2
     4d8:	979a                	add	a5,a5,t1
     4da:	0742                	slli	a4,a4,0x10
     4dc:	8f4d                	or	a4,a4,a1
     4de:	01071293          	slli	t0,a4,0x10
     4e2:	0102d293          	srli	t0,t0,0x10
     4e6:	45d2                	lw	a1,20(sp)
     4e8:	8f81                	sub	a5,a5,s0
     4ea:	8516                	mv	a0,t0
     4ec:	245000ef          	jal	f30 <__mulsi3>
     4f0:	84aa                	mv	s1,a0
     4f2:	45c2                	lw	a1,16(sp)
     4f4:	8516                	mv	a0,t0
     4f6:	23b000ef          	jal	f30 <__mulsi3>
     4fa:	82aa                	mv	t0,a0
     4fc:	45d2                	lw	a1,20(sp)
     4fe:	01075513          	srli	a0,a4,0x10
     502:	22f000ef          	jal	f30 <__mulsi3>
     506:	842a                	mv	s0,a0
     508:	45c2                	lw	a1,16(sp)
     50a:	01075513          	srli	a0,a4,0x10
     50e:	223000ef          	jal	f30 <__mulsi3>
     512:	0104d613          	srli	a2,s1,0x10
     516:	008286b3          	add	a3,t0,s0
     51a:	00d602b3          	add	t0,a2,a3
     51e:	0082f463          	bgeu	t0,s0,526 <__divdf3+0x486>
     522:	66c1                	lui	a3,0x10
     524:	9536                	add	a0,a0,a3
     526:	0102d693          	srli	a3,t0,0x10
     52a:	9536                	add	a0,a0,a3
     52c:	66c1                	lui	a3,0x10
     52e:	16fd                	addi	a3,a3,-1 # ffff <lib_gpioctrl.c.91833d69+0xdbc5>
     530:	00d2f2b3          	and	t0,t0,a3
     534:	02c2                	slli	t0,t0,0x10
     536:	8ee5                	and	a3,a3,s1
     538:	92b6                	add	t0,t0,a3
     53a:	00a7e763          	bltu	a5,a0,548 <__divdf3+0x4a8>
     53e:	86ba                	mv	a3,a4
     540:	04a79063          	bne	a5,a0,580 <__divdf3+0x4e0>
     544:	04028063          	beqz	t0,584 <__divdf3+0x4e4>
     548:	979a                	add	a5,a5,t1
     54a:	fff70693          	addi	a3,a4,-1
     54e:	863e                	mv	a2,a5
     550:	0267e363          	bltu	a5,t1,576 <__divdf3+0x4d6>
     554:	00a7e763          	bltu	a5,a0,562 <__divdf3+0x4c2>
     558:	02a79463          	bne	a5,a0,580 <__divdf3+0x4e0>
     55c:	4602                	lw	a2,0(sp)
     55e:	00567e63          	bgeu	a2,t0,57a <__divdf3+0x4da>
     562:	ffe70693          	addi	a3,a4,-2
     566:	4702                	lw	a4,0(sp)
     568:	4602                	lw	a2,0(sp)
     56a:	0706                	slli	a4,a4,0x1
     56c:	00c73633          	sltu	a2,a4,a2
     570:	961a                	add	a2,a2,t1
     572:	963e                	add	a2,a2,a5
     574:	c03a                	sw	a4,0(sp)
     576:	00a61563          	bne	a2,a0,580 <__divdf3+0x4e0>
     57a:	4782                	lw	a5,0(sp)
     57c:	00f28463          	beq	t0,a5,584 <__divdf3+0x4e4>
     580:	0016e693          	ori	a3,a3,1
     584:	47a2                	lw	a5,8(sp)
     586:	3ff78793          	addi	a5,a5,1023
     58a:	08f05363          	blez	a5,610 <__divdf3+0x570>
     58e:	0076f713          	andi	a4,a3,7
     592:	cf01                	beqz	a4,5aa <__divdf3+0x50a>
     594:	00f6f713          	andi	a4,a3,15
     598:	4611                	li	a2,4
     59a:	00c70863          	beq	a4,a2,5aa <__divdf3+0x50a>
     59e:	00468713          	addi	a4,a3,4
     5a2:	00d73633          	sltu	a2,a4,a3
     5a6:	93b2                	add	t2,t2,a2
     5a8:	86ba                	mv	a3,a4
     5aa:	01000737          	lui	a4,0x1000
     5ae:	00e3f733          	and	a4,t2,a4
     5b2:	cb09                	beqz	a4,5c4 <__divdf3+0x524>
     5b4:	ff0007b7          	lui	a5,0xff000
     5b8:	17fd                	addi	a5,a5,-1 # feffffff <__global_pointer$+0xdefff7ff>
     5ba:	00f3f3b3          	and	t2,t2,a5
     5be:	47a2                	lw	a5,8(sp)
     5c0:	40078793          	addi	a5,a5,1024
     5c4:	7fe00713          	li	a4,2046
     5c8:	0ef74463          	blt	a4,a5,6b0 <__divdf3+0x610>
     5cc:	0036d713          	srli	a4,a3,0x3
     5d0:	01d39693          	slli	a3,t2,0x1d
     5d4:	8ed9                	or	a3,a3,a4
     5d6:	0033d393          	srli	t2,t2,0x3
     5da:	4732                	lw	a4,12(sp)
     5dc:	03b2                	slli	t2,t2,0xc
     5de:	50e2                	lw	ra,56(sp)
     5e0:	5452                	lw	s0,52(sp)
     5e2:	07d2                	slli	a5,a5,0x14
     5e4:	00c3d393          	srli	t2,t2,0xc
     5e8:	0077e7b3          	or	a5,a5,t2
     5ec:	077e                	slli	a4,a4,0x1f
     5ee:	00e7e633          	or	a2,a5,a4
     5f2:	54c2                	lw	s1,48(sp)
     5f4:	8536                	mv	a0,a3
     5f6:	85b2                	mv	a1,a2
     5f8:	03c10113          	addi	sp,sp,60
     5fc:	8082                	ret
     5fe:	4722                	lw	a4,8(sp)
     600:	177d                	addi	a4,a4,-1 # ffffff <lib_gpioctrl.c.91833d69+0xffdbc5>
     602:	c43a                	sw	a4,8(sp)
     604:	4701                	li	a4,0
     606:	b945                	j	2b6 <__divdf3+0x216>
     608:	4792                	lw	a5,4(sp)
     60a:	84aa                	mv	s1,a0
     60c:	c63e                	sw	a5,12(sp)
     60e:	b98d                	j	280 <__divdf3+0x1e0>
     610:	4605                	li	a2,1
     612:	cb89                	beqz	a5,624 <__divdf3+0x584>
     614:	8e1d                	sub	a2,a2,a5
     616:	03800713          	li	a4,56
     61a:	c6c74ce3          	blt	a4,a2,292 <__divdf3+0x1f2>
     61e:	477d                	li	a4,31
     620:	04c74c63          	blt	a4,a2,678 <__divdf3+0x5d8>
     624:	47a2                	lw	a5,8(sp)
     626:	41e78713          	addi	a4,a5,1054
     62a:	00c6d7b3          	srl	a5,a3,a2
     62e:	00e696b3          	sll	a3,a3,a4
     632:	00d036b3          	snez	a3,a3
     636:	00e39733          	sll	a4,t2,a4
     63a:	8ed9                	or	a3,a3,a4
     63c:	8fd5                	or	a5,a5,a3
     63e:	00c3d3b3          	srl	t2,t2,a2
     642:	0077f713          	andi	a4,a5,7
     646:	cf01                	beqz	a4,65e <__divdf3+0x5be>
     648:	00f7f713          	andi	a4,a5,15
     64c:	4691                	li	a3,4
     64e:	00d70863          	beq	a4,a3,65e <__divdf3+0x5be>
     652:	00478713          	addi	a4,a5,4
     656:	00f736b3          	sltu	a3,a4,a5
     65a:	93b6                	add	t2,t2,a3
     65c:	87ba                	mv	a5,a4
     65e:	00800737          	lui	a4,0x800
     662:	00e3f733          	and	a4,t2,a4
     666:	eb31                	bnez	a4,6ba <__divdf3+0x61a>
     668:	01d39693          	slli	a3,t2,0x1d
     66c:	838d                	srli	a5,a5,0x3
     66e:	8edd                	or	a3,a3,a5
     670:	0033d393          	srli	t2,t2,0x3
     674:	4781                	li	a5,0
     676:	b795                	j	5da <__divdf3+0x53a>
     678:	5705                	li	a4,-31
     67a:	40f707b3          	sub	a5,a4,a5
     67e:	02000593          	li	a1,32
     682:	00f3d7b3          	srl	a5,t2,a5
     686:	4701                	li	a4,0
     688:	00b60763          	beq	a2,a1,696 <__divdf3+0x5f6>
     68c:	4722                	lw	a4,8(sp)
     68e:	43e70713          	addi	a4,a4,1086 # 80043e <lib_gpioctrl.c.91833d69+0x7fe004>
     692:	00e39733          	sll	a4,t2,a4
     696:	8f55                	or	a4,a4,a3
     698:	00e03733          	snez	a4,a4
     69c:	8fd9                	or	a5,a5,a4
     69e:	4381                	li	t2,0
     6a0:	b74d                	j	642 <__divdf3+0x5a2>
     6a2:	000803b7          	lui	t2,0x80
     6a6:	4681                	li	a3,0
     6a8:	7ff00793          	li	a5,2047
     6ac:	c602                	sw	zero,12(sp)
     6ae:	b735                	j	5da <__divdf3+0x53a>
     6b0:	4381                	li	t2,0
     6b2:	4681                	li	a3,0
     6b4:	7ff00793          	li	a5,2047
     6b8:	b70d                	j	5da <__divdf3+0x53a>
     6ba:	4381                	li	t2,0
     6bc:	4681                	li	a3,0
     6be:	4785                	li	a5,1
     6c0:	bf29                	j	5da <__divdf3+0x53a>

000006c2 <__floatsidf>:
     6c2:	1151                	addi	sp,sp,-12
     6c4:	c406                	sw	ra,8(sp)
     6c6:	c222                	sw	s0,4(sp)
     6c8:	c026                	sw	s1,0(sp)
     6ca:	cd29                	beqz	a0,724 <__floatsidf+0x62>
     6cc:	41f55793          	srai	a5,a0,0x1f
     6d0:	00a7c433          	xor	s0,a5,a0
     6d4:	8c1d                	sub	s0,s0,a5
     6d6:	01f55493          	srli	s1,a0,0x1f
     6da:	8522                	mv	a0,s0
     6dc:	0eb000ef          	jal	fc6 <__clzsi2>
     6e0:	41e00693          	li	a3,1054
     6e4:	47a9                	li	a5,10
     6e6:	8e89                	sub	a3,a3,a0
     6e8:	02a7c863          	blt	a5,a0,718 <__floatsidf+0x56>
     6ec:	47ad                	li	a5,11
     6ee:	8f89                	sub	a5,a5,a0
     6f0:	0555                	addi	a0,a0,21
     6f2:	00a41733          	sll	a4,s0,a0
     6f6:	00f457b3          	srl	a5,s0,a5
     6fa:	8526                	mv	a0,s1
     6fc:	07b2                	slli	a5,a5,0xc
     6fe:	40a2                	lw	ra,8(sp)
     700:	4412                	lw	s0,4(sp)
     702:	83b1                	srli	a5,a5,0xc
     704:	06d2                	slli	a3,a3,0x14
     706:	057e                	slli	a0,a0,0x1f
     708:	8edd                	or	a3,a3,a5
     70a:	00a6e7b3          	or	a5,a3,a0
     70e:	4482                	lw	s1,0(sp)
     710:	853a                	mv	a0,a4
     712:	85be                	mv	a1,a5
     714:	0131                	addi	sp,sp,12
     716:	8082                	ret
     718:	1555                	addi	a0,a0,-11
     71a:	00a417b3          	sll	a5,s0,a0
     71e:	8526                	mv	a0,s1
     720:	4701                	li	a4,0
     722:	bfe9                	j	6fc <__floatsidf+0x3a>
     724:	4681                	li	a3,0
     726:	4781                	li	a5,0
     728:	bfe5                	j	720 <__floatsidf+0x5e>

0000072a <__mulsf3>:
     72a:	1111                	addi	sp,sp,-28
     72c:	01755293          	srli	t0,a0,0x17
     730:	ca22                	sw	s0,20(sp)
     732:	c826                	sw	s1,16(sp)
     734:	00951713          	slli	a4,a0,0x9
     738:	cc06                	sw	ra,24(sp)
     73a:	0ff2f293          	zext.b	t0,t0
     73e:	84ae                	mv	s1,a1
     740:	8325                	srli	a4,a4,0x9
     742:	01f55413          	srli	s0,a0,0x1f
     746:	12028b63          	beqz	t0,87c <__mulsf3+0x152>
     74a:	0ff00793          	li	a5,255
     74e:	14f28563          	beq	t0,a5,898 <__mulsf3+0x16e>
     752:	070e                	slli	a4,a4,0x3
     754:	040007b7          	lui	a5,0x4000
     758:	8f5d                	or	a4,a4,a5
     75a:	f8128293          	addi	t0,t0,-127
     75e:	4601                	li	a2,0
     760:	0174d693          	srli	a3,s1,0x17
     764:	00949793          	slli	a5,s1,0x9
     768:	0ff6f693          	zext.b	a3,a3
     76c:	83a5                	srli	a5,a5,0x9
     76e:	80fd                	srli	s1,s1,0x1f
     770:	12068e63          	beqz	a3,8ac <__mulsf3+0x182>
     774:	0ff00593          	li	a1,255
     778:	14b68e63          	beq	a3,a1,8d4 <__mulsf3+0x1aa>
     77c:	040005b7          	lui	a1,0x4000
     780:	078e                	slli	a5,a5,0x3
     782:	8fcd                	or	a5,a5,a1
     784:	f8168693          	addi	a3,a3,-127
     788:	4581                	li	a1,0
     78a:	9696                	add	a3,a3,t0
     78c:	c036                	sw	a3,0(sp)
     78e:	00168293          	addi	t0,a3,1
     792:	00261693          	slli	a3,a2,0x2
     796:	8ecd                	or	a3,a3,a1
     798:	4529                	li	a0,10
     79a:	00944333          	xor	t1,s0,s1
     79e:	16d54f63          	blt	a0,a3,91c <__mulsf3+0x1f2>
     7a2:	4509                	li	a0,2
     7a4:	14d54263          	blt	a0,a3,8e8 <__mulsf3+0x1be>
     7a8:	16fd                	addi	a3,a3,-1
     7aa:	4605                	li	a2,1
     7ac:	14d67c63          	bgeu	a2,a3,904 <__mulsf3+0x1da>
     7b0:	64c1                	lui	s1,0x10
     7b2:	01075693          	srli	a3,a4,0x10
     7b6:	fff48393          	addi	t2,s1,-1 # ffff <lib_gpioctrl.c.91833d69+0xdbc5>
     7ba:	c236                	sw	a3,4(sp)
     7bc:	00777733          	and	a4,a4,t2
     7c0:	0107d693          	srli	a3,a5,0x10
     7c4:	0077f7b3          	and	a5,a5,t2
     7c8:	c436                	sw	a3,8(sp)
     7ca:	853a                	mv	a0,a4
     7cc:	85be                	mv	a1,a5
     7ce:	278d                	jal	f30 <__mulsi3>
     7d0:	842a                	mv	s0,a0
     7d2:	45a2                	lw	a1,8(sp)
     7d4:	853a                	mv	a0,a4
     7d6:	2fa9                	jal	f30 <__mulsi3>
     7d8:	872a                	mv	a4,a0
     7da:	85be                	mv	a1,a5
     7dc:	4512                	lw	a0,4(sp)
     7de:	2f89                	jal	f30 <__mulsi3>
     7e0:	87aa                	mv	a5,a0
     7e2:	45a2                	lw	a1,8(sp)
     7e4:	4512                	lw	a0,4(sp)
     7e6:	27a9                	jal	f30 <__mulsi3>
     7e8:	01045693          	srli	a3,s0,0x10
     7ec:	973e                	add	a4,a4,a5
     7ee:	9736                	add	a4,a4,a3
     7f0:	00f77363          	bgeu	a4,a5,7f6 <__mulsf3+0xcc>
     7f4:	9526                	add	a0,a0,s1
     7f6:	007777b3          	and	a5,a4,t2
     7fa:	007476b3          	and	a3,s0,t2
     7fe:	07c2                	slli	a5,a5,0x10
     800:	97b6                	add	a5,a5,a3
     802:	00679693          	slli	a3,a5,0x6
     806:	00d036b3          	snez	a3,a3
     80a:	83e9                	srli	a5,a5,0x1a
     80c:	8edd                	or	a3,a3,a5
     80e:	01075793          	srli	a5,a4,0x10
     812:	97aa                	add	a5,a5,a0
     814:	079a                	slli	a5,a5,0x6
     816:	8fd5                	or	a5,a5,a3
     818:	08000737          	lui	a4,0x8000
     81c:	8f7d                	and	a4,a4,a5
     81e:	10070963          	beqz	a4,930 <__mulsf3+0x206>
     822:	0017d713          	srli	a4,a5,0x1
     826:	8b85                	andi	a5,a5,1
     828:	8fd9                	or	a5,a5,a4
     82a:	07f28513          	addi	a0,t0,127
     82e:	10a05363          	blez	a0,934 <__mulsf3+0x20a>
     832:	0077f713          	andi	a4,a5,7
     836:	c719                	beqz	a4,844 <__mulsf3+0x11a>
     838:	00f7f713          	andi	a4,a5,15
     83c:	4691                	li	a3,4
     83e:	00d70363          	beq	a4,a3,844 <__mulsf3+0x11a>
     842:	0791                	addi	a5,a5,4 # 4000004 <lib_gpioctrl.c.91833d69+0x3ffdbca>
     844:	08000737          	lui	a4,0x8000
     848:	8f7d                	and	a4,a4,a5
     84a:	c719                	beqz	a4,858 <__mulsf3+0x12e>
     84c:	f8000737          	lui	a4,0xf8000
     850:	177d                	addi	a4,a4,-1 # f7ffffff <__global_pointer$+0xd7fff7ff>
     852:	8ff9                	and	a5,a5,a4
     854:	08028513          	addi	a0,t0,128
     858:	0fe00713          	li	a4,254
     85c:	12a74563          	blt	a4,a0,986 <__mulsf3+0x25c>
     860:	0037d713          	srli	a4,a5,0x3
     864:	40e2                	lw	ra,24(sp)
     866:	4452                	lw	s0,20(sp)
     868:	0726                	slli	a4,a4,0x9
     86a:	055e                	slli	a0,a0,0x17
     86c:	8325                	srli	a4,a4,0x9
     86e:	8d59                	or	a0,a0,a4
     870:	037e                	slli	t1,t1,0x1f
     872:	44c2                	lw	s1,16(sp)
     874:	00656533          	or	a0,a0,t1
     878:	0171                	addi	sp,sp,28
     87a:	8082                	ret
     87c:	c70d                	beqz	a4,8a6 <__mulsf3+0x17c>
     87e:	853a                	mv	a0,a4
     880:	c03a                	sw	a4,0(sp)
     882:	2791                	jal	fc6 <__clzsi2>
     884:	4702                	lw	a4,0(sp)
     886:	ffb50793          	addi	a5,a0,-5
     88a:	f8a00293          	li	t0,-118
     88e:	00f71733          	sll	a4,a4,a5
     892:	40a282b3          	sub	t0,t0,a0
     896:	b5e1                	j	75e <__mulsf3+0x34>
     898:	0ff00293          	li	t0,255
     89c:	460d                	li	a2,3
     89e:	ec0711e3          	bnez	a4,760 <__mulsf3+0x36>
     8a2:	4609                	li	a2,2
     8a4:	bd75                	j	760 <__mulsf3+0x36>
     8a6:	4281                	li	t0,0
     8a8:	4605                	li	a2,1
     8aa:	bd5d                	j	760 <__mulsf3+0x36>
     8ac:	cb9d                	beqz	a5,8e2 <__mulsf3+0x1b8>
     8ae:	853e                	mv	a0,a5
     8b0:	c63a                	sw	a4,12(sp)
     8b2:	c416                	sw	t0,8(sp)
     8b4:	c232                	sw	a2,4(sp)
     8b6:	c03e                	sw	a5,0(sp)
     8b8:	2739                	jal	fc6 <__clzsi2>
     8ba:	4782                	lw	a5,0(sp)
     8bc:	ffb50693          	addi	a3,a0,-5
     8c0:	4612                	lw	a2,4(sp)
     8c2:	00d797b3          	sll	a5,a5,a3
     8c6:	f8a00693          	li	a3,-118
     8ca:	42a2                	lw	t0,8(sp)
     8cc:	4732                	lw	a4,12(sp)
     8ce:	8e89                	sub	a3,a3,a0
     8d0:	4581                	li	a1,0
     8d2:	bd65                	j	78a <__mulsf3+0x60>
     8d4:	0ff00693          	li	a3,255
     8d8:	458d                	li	a1,3
     8da:	ea0798e3          	bnez	a5,78a <__mulsf3+0x60>
     8de:	4589                	li	a1,2
     8e0:	b56d                	j	78a <__mulsf3+0x60>
     8e2:	4681                	li	a3,0
     8e4:	4585                	li	a1,1
     8e6:	b555                	j	78a <__mulsf3+0x60>
     8e8:	4505                	li	a0,1
     8ea:	00d516b3          	sll	a3,a0,a3
     8ee:	5306f513          	andi	a0,a3,1328
     8f2:	ed05                	bnez	a0,92a <__mulsf3+0x200>
     8f4:	2406f613          	andi	a2,a3,576
     8f8:	e249                	bnez	a2,97a <__mulsf3+0x250>
     8fa:	0886f693          	andi	a3,a3,136
     8fe:	ea0689e3          	beqz	a3,7b0 <__mulsf3+0x86>
     902:	8326                	mv	t1,s1
     904:	4709                	li	a4,2
     906:	08e58063          	beq	a1,a4,986 <__mulsf3+0x25c>
     90a:	470d                	li	a4,3
     90c:	06e58763          	beq	a1,a4,97a <__mulsf3+0x250>
     910:	4705                	li	a4,1
     912:	f0e59ce3          	bne	a1,a4,82a <__mulsf3+0x100>
     916:	4701                	li	a4,0
     918:	4501                	li	a0,0
     91a:	b7a9                	j	864 <__mulsf3+0x13a>
     91c:	453d                	li	a0,15
     91e:	04a68e63          	beq	a3,a0,97a <__mulsf3+0x250>
     922:	452d                	li	a0,11
     924:	8322                	mv	t1,s0
     926:	fca68ee3          	beq	a3,a0,902 <__mulsf3+0x1d8>
     92a:	87ba                	mv	a5,a4
     92c:	85b2                	mv	a1,a2
     92e:	bfd9                	j	904 <__mulsf3+0x1da>
     930:	4282                	lw	t0,0(sp)
     932:	bde5                	j	82a <__mulsf3+0x100>
     934:	4685                	li	a3,1
     936:	c519                	beqz	a0,944 <__mulsf3+0x21a>
     938:	8e89                	sub	a3,a3,a0
     93a:	466d                	li	a2,27
     93c:	4701                	li	a4,0
     93e:	4501                	li	a0,0
     940:	f2d642e3          	blt	a2,a3,864 <__mulsf3+0x13a>
     944:	09e28293          	addi	t0,t0,158
     948:	00d7d6b3          	srl	a3,a5,a3
     94c:	005797b3          	sll	a5,a5,t0
     950:	00f037b3          	snez	a5,a5
     954:	00f6e733          	or	a4,a3,a5
     958:	00777793          	andi	a5,a4,7
     95c:	c799                	beqz	a5,96a <__mulsf3+0x240>
     95e:	00f77793          	andi	a5,a4,15
     962:	4691                	li	a3,4
     964:	00d78363          	beq	a5,a3,96a <__mulsf3+0x240>
     968:	0711                	addi	a4,a4,4
     96a:	040007b7          	lui	a5,0x4000
     96e:	8ff9                	and	a5,a5,a4
     970:	830d                	srli	a4,a4,0x3
     972:	d3dd                	beqz	a5,918 <__mulsf3+0x1ee>
     974:	4701                	li	a4,0
     976:	4505                	li	a0,1
     978:	b5f5                	j	864 <__mulsf3+0x13a>
     97a:	00400737          	lui	a4,0x400
     97e:	0ff00513          	li	a0,255
     982:	4301                	li	t1,0
     984:	b5c5                	j	864 <__mulsf3+0x13a>
     986:	4701                	li	a4,0
     988:	0ff00513          	li	a0,255
     98c:	bde1                	j	864 <__mulsf3+0x13a>

0000098e <__subsf3>:
     98e:	008007b7          	lui	a5,0x800
     992:	1141                	addi	sp,sp,-16
     994:	17fd                	addi	a5,a5,-1 # 7fffff <lib_gpioctrl.c.91833d69+0x7fdbc5>
     996:	00a7f633          	and	a2,a5,a0
     99a:	c422                	sw	s0,8(sp)
     99c:	01f55713          	srli	a4,a0,0x1f
     9a0:	01755413          	srli	s0,a0,0x17
     9a4:	0175d513          	srli	a0,a1,0x17
     9a8:	8fed                	and	a5,a5,a1
     9aa:	c606                	sw	ra,12(sp)
     9ac:	c226                	sw	s1,4(sp)
     9ae:	0ff57513          	zext.b	a0,a0
     9b2:	0ff00313          	li	t1,255
     9b6:	0ff47413          	zext.b	s0,s0
     9ba:	060e                	slli	a2,a2,0x3
     9bc:	81fd                	srli	a1,a1,0x1f
     9be:	078e                	slli	a5,a5,0x3
     9c0:	06651763          	bne	a0,t1,a2e <__subsf3+0xa0>
     9c4:	f0140693          	addi	a3,s0,-255
     9c8:	cb91                	beqz	a5,9dc <__subsf3+0x4e>
     9ca:	82ae                	mv	t0,a1
     9cc:	1eb71363          	bne	a4,a1,bb2 <__subsf3+0x224>
     9d0:	14068363          	beqz	a3,b16 <__subsf3+0x188>
     9d4:	e451                	bnez	s0,a60 <__subsf3+0xd2>
     9d6:	0ff00413          	li	s0,255
     9da:	a211                	j	ade <__subsf3+0x150>
     9dc:	0015c293          	xori	t0,a1,1
     9e0:	1c571f63          	bne	a4,t0,bbe <__subsf3+0x230>
     9e4:	12068963          	beqz	a3,b16 <__subsf3+0x188>
     9e8:	d47d                	beqz	s0,9d6 <__subsf3+0x48>
     9ea:	0ff00413          	li	s0,255
     9ee:	040006b7          	lui	a3,0x4000
     9f2:	8efd                	and	a3,a3,a5
     9f4:	2c068963          	beqz	a3,cc6 <__subsf3+0x338>
     9f8:	0405                	addi	s0,s0,1
     9fa:	0ff00693          	li	a3,255
     9fe:	4481                	li	s1,0
     a00:	00d40863          	beq	s0,a3,a10 <__subsf3+0x82>
     a04:	0037d493          	srli	s1,a5,0x3
     a08:	1f8007b7          	lui	a5,0x1f800
     a0c:	17fd                	addi	a5,a5,-1 # 1f7fffff <lib_gpioctrl.c.91833d69+0x1f7fdbc5>
     a0e:	8cfd                	and	s1,s1,a5
     a10:	045e                	slli	s0,s0,0x17
     a12:	7f8007b7          	lui	a5,0x7f800
     a16:	04a6                	slli	s1,s1,0x9
     a18:	80a5                	srli	s1,s1,0x9
     a1a:	8c7d                	and	s0,s0,a5
     a1c:	8c45                	or	s0,s0,s1
     a1e:	01f71513          	slli	a0,a4,0x1f
     a22:	40b2                	lw	ra,12(sp)
     a24:	8d41                	or	a0,a0,s0
     a26:	4422                	lw	s0,8(sp)
     a28:	4492                	lw	s1,4(sp)
     a2a:	0141                	addi	sp,sp,16
     a2c:	8082                	ret
     a2e:	0015c293          	xori	t0,a1,1
     a32:	40a406b3          	sub	a3,s0,a0
     a36:	10571f63          	bne	a4,t0,b54 <__subsf3+0x1c6>
     a3a:	08d05963          	blez	a3,acc <__subsf3+0x13e>
     a3e:	e505                	bnez	a0,a66 <__subsf3+0xd8>
     a40:	26078f63          	beqz	a5,cbe <__subsf3+0x330>
     a44:	fff68593          	addi	a1,a3,-1 # 3ffffff <lib_gpioctrl.c.91833d69+0x3ffdbc5>
     a48:	e989                	bnez	a1,a5a <__subsf3+0xcc>
     a4a:	97b2                	add	a5,a5,a2
     a4c:	040006b7          	lui	a3,0x4000
     a50:	8efd                	and	a3,a3,a5
     a52:	4409                	li	s0,2
     a54:	e2bd                	bnez	a3,aba <__subsf3+0x12c>
     a56:	4405                	li	s0,1
     a58:	a015                	j	a7c <__subsf3+0xee>
     a5a:	00669c63          	bne	a3,t1,a72 <__subsf3+0xe4>
     a5e:	87b2                	mv	a5,a2
     a60:	0ff00413          	li	s0,255
     a64:	a821                	j	a7c <__subsf3+0xee>
     a66:	24640e63          	beq	s0,t1,cc2 <__subsf3+0x334>
     a6a:	040005b7          	lui	a1,0x4000
     a6e:	8fcd                	or	a5,a5,a1
     a70:	85b6                	mv	a1,a3
     a72:	46ed                	li	a3,27
     a74:	00b6de63          	bge	a3,a1,a90 <__subsf3+0x102>
     a78:	00160793          	addi	a5,a2,1
     a7c:	0077f693          	andi	a3,a5,7
     a80:	d6bd                	beqz	a3,9ee <__subsf3+0x60>
     a82:	00f7f693          	andi	a3,a5,15
     a86:	4611                	li	a2,4
     a88:	f6c683e3          	beq	a3,a2,9ee <__subsf3+0x60>
     a8c:	0791                	addi	a5,a5,4 # 7f800004 <__global_pointer$+0x5f7ff804>
     a8e:	b785                	j	9ee <__subsf3+0x60>
     a90:	02000693          	li	a3,32
     a94:	8e8d                	sub	a3,a3,a1
     a96:	00b7d533          	srl	a0,a5,a1
     a9a:	00d797b3          	sll	a5,a5,a3
     a9e:	00f037b3          	snez	a5,a5
     aa2:	8fc9                	or	a5,a5,a0
     aa4:	97b2                	add	a5,a5,a2
     aa6:	040006b7          	lui	a3,0x4000
     aaa:	8efd                	and	a3,a3,a5
     aac:	dae1                	beqz	a3,a7c <__subsf3+0xee>
     aae:	0405                	addi	s0,s0,1
     ab0:	0ff00693          	li	a3,255
     ab4:	4481                	li	s1,0
     ab6:	f4d40de3          	beq	s0,a3,a10 <__subsf3+0x82>
     aba:	7e0006b7          	lui	a3,0x7e000
     abe:	0017f613          	andi	a2,a5,1
     ac2:	16fd                	addi	a3,a3,-1 # 7dffffff <__global_pointer$+0x5dfff7ff>
     ac4:	8385                	srli	a5,a5,0x1
     ac6:	8ff5                	and	a5,a5,a3
     ac8:	8fd1                	or	a5,a5,a2
     aca:	bf4d                	j	a7c <__subsf3+0xee>
     acc:	c6a9                	beqz	a3,b16 <__subsf3+0x188>
     ace:	408505b3          	sub	a1,a0,s0
     ad2:	c409                	beqz	s0,adc <__subsf3+0x14e>
     ad4:	040006b7          	lui	a3,0x4000
     ad8:	8e55                	or	a2,a2,a3
     ada:	a811                	j	aee <__subsf3+0x160>
     adc:	842e                	mv	s0,a1
     ade:	de59                	beqz	a2,a7c <__subsf3+0xee>
     ae0:	fff40593          	addi	a1,s0,-1
     ae4:	d1bd                	beqz	a1,a4a <__subsf3+0xbc>
     ae6:	0ff00693          	li	a3,255
     aea:	f8d409e3          	beq	s0,a3,a7c <__subsf3+0xee>
     aee:	46ed                	li	a3,27
     af0:	00b6d563          	bge	a3,a1,afa <__subsf3+0x16c>
     af4:	0785                	addi	a5,a5,1
     af6:	842a                	mv	s0,a0
     af8:	b751                	j	a7c <__subsf3+0xee>
     afa:	02000693          	li	a3,32
     afe:	8e8d                	sub	a3,a3,a1
     b00:	00d616b3          	sll	a3,a2,a3
     b04:	00b65333          	srl	t1,a2,a1
     b08:	00d036b3          	snez	a3,a3
     b0c:	00d366b3          	or	a3,t1,a3
     b10:	97b6                	add	a5,a5,a3
     b12:	842a                	mv	s0,a0
     b14:	bf49                	j	aa6 <__subsf3+0x118>
     b16:	00140693          	addi	a3,s0,1
     b1a:	0fe6f593          	andi	a1,a3,254
     b1e:	e195                	bnez	a1,b42 <__subsf3+0x1b4>
     b20:	ec11                	bnez	s0,b3c <__subsf3+0x1ae>
     b22:	de29                	beqz	a2,a7c <__subsf3+0xee>
     b24:	18078f63          	beqz	a5,cc2 <__subsf3+0x334>
     b28:	97b2                	add	a5,a5,a2
     b2a:	040006b7          	lui	a3,0x4000
     b2e:	8efd                	and	a3,a3,a5
     b30:	d6b1                	beqz	a3,a7c <__subsf3+0xee>
     b32:	fc0006b7          	lui	a3,0xfc000
     b36:	16fd                	addi	a3,a3,-1 # fbffffff <__global_pointer$+0xdbfff7ff>
     b38:	8ff5                	and	a5,a5,a3
     b3a:	bf31                	j	a56 <__subsf3+0xc8>
     b3c:	d215                	beqz	a2,a60 <__subsf3+0xd2>
     b3e:	d385                	beqz	a5,a5e <__subsf3+0xd0>
     b40:	a205                	j	c60 <__subsf3+0x2d2>
     b42:	0ff00593          	li	a1,255
     b46:	18b68b63          	beq	a3,a1,cdc <__subsf3+0x34e>
     b4a:	963e                	add	a2,a2,a5
     b4c:	00165793          	srli	a5,a2,0x1
     b50:	8436                	mv	s0,a3
     b52:	b72d                	j	a7c <__subsf3+0xee>
     b54:	06d05b63          	blez	a3,bca <__subsf3+0x23c>
     b58:	e531                	bnez	a0,ba4 <__subsf3+0x216>
     b5a:	16078263          	beqz	a5,cbe <__subsf3+0x330>
     b5e:	fff68593          	addi	a1,a3,-1
     b62:	e589                	bnez	a1,b6c <__subsf3+0x1de>
     b64:	40f607b3          	sub	a5,a2,a5
     b68:	4405                	li	s0,1
     b6a:	a025                	j	b92 <__subsf3+0x204>
     b6c:	ee6689e3          	beq	a3,t1,a5e <__subsf3+0xd0>
     b70:	456d                	li	a0,27
     b72:	4685                	li	a3,1
     b74:	00b54d63          	blt	a0,a1,b8e <__subsf3+0x200>
     b78:	02000693          	li	a3,32
     b7c:	8e8d                	sub	a3,a3,a1
     b7e:	00b7d533          	srl	a0,a5,a1
     b82:	00d797b3          	sll	a5,a5,a3
     b86:	00f037b3          	snez	a5,a5
     b8a:	00f566b3          	or	a3,a0,a5
     b8e:	40d607b3          	sub	a5,a2,a3
     b92:	040004b7          	lui	s1,0x4000
     b96:	0097f6b3          	and	a3,a5,s1
     b9a:	ee0681e3          	beqz	a3,a7c <__subsf3+0xee>
     b9e:	14fd                	addi	s1,s1,-1 # 3ffffff <lib_gpioctrl.c.91833d69+0x3ffdbc5>
     ba0:	8cfd                	and	s1,s1,a5
     ba2:	a8f1                	j	c7e <__subsf3+0x2f0>
     ba4:	10640f63          	beq	s0,t1,cc2 <__subsf3+0x334>
     ba8:	040005b7          	lui	a1,0x4000
     bac:	8fcd                	or	a5,a5,a1
     bae:	85b6                	mv	a1,a3
     bb0:	b7c1                	j	b70 <__subsf3+0x1e2>
     bb2:	cab5                	beqz	a3,c26 <__subsf3+0x298>
     bb4:	c805                	beqz	s0,be4 <__subsf3+0x256>
     bb6:	0ff00413          	li	s0,255
     bba:	872e                	mv	a4,a1
     bbc:	b5c1                	j	a7c <__subsf3+0xee>
     bbe:	c6a5                	beqz	a3,c26 <__subsf3+0x298>
     bc0:	c415                	beqz	s0,bec <__subsf3+0x25e>
     bc2:	0ff00413          	li	s0,255
     bc6:	8716                	mv	a4,t0
     bc8:	b51d                	j	9ee <__subsf3+0x60>
     bca:	ceb1                	beqz	a3,c26 <__subsf3+0x298>
     bcc:	408505b3          	sub	a1,a0,s0
     bd0:	e431                	bnez	s0,c1c <__subsf3+0x28e>
     bd2:	8716                	mv	a4,t0
     bd4:	842e                	mv	s0,a1
     bd6:	ea0603e3          	beqz	a2,a7c <__subsf3+0xee>
     bda:	fff40593          	addi	a1,s0,-1
     bde:	e989                	bnez	a1,bf0 <__subsf3+0x262>
     be0:	8f91                	sub	a5,a5,a2
     be2:	b759                	j	b68 <__subsf3+0x1da>
     be4:	872e                	mv	a4,a1
     be6:	0ff00413          	li	s0,255
     bea:	b7f5                	j	bd6 <__subsf3+0x248>
     bec:	8716                	mv	a4,t0
     bee:	bfe5                	j	be6 <__subsf3+0x258>
     bf0:	0ff00693          	li	a3,255
     bf4:	e8d404e3          	beq	s0,a3,a7c <__subsf3+0xee>
     bf8:	436d                	li	t1,27
     bfa:	4685                	li	a3,1
     bfc:	00b34d63          	blt	t1,a1,c16 <__subsf3+0x288>
     c00:	02000693          	li	a3,32
     c04:	8e8d                	sub	a3,a3,a1
     c06:	00d616b3          	sll	a3,a2,a3
     c0a:	00b65333          	srl	t1,a2,a1
     c0e:	00d036b3          	snez	a3,a3
     c12:	00d366b3          	or	a3,t1,a3
     c16:	8f95                	sub	a5,a5,a3
     c18:	842a                	mv	s0,a0
     c1a:	bfa5                	j	b92 <__subsf3+0x204>
     c1c:	04000737          	lui	a4,0x4000
     c20:	8e59                	or	a2,a2,a4
     c22:	8716                	mv	a4,t0
     c24:	bfd1                	j	bf8 <__subsf3+0x26a>
     c26:	00140693          	addi	a3,s0,1
     c2a:	0fe6f693          	andi	a3,a3,254
     c2e:	ee9d                	bnez	a3,c6c <__subsf3+0x2de>
     c30:	e01d                	bnez	s0,c56 <__subsf3+0x2c8>
     c32:	e601                	bnez	a2,c3a <__subsf3+0x2ac>
     c34:	cbc5                	beqz	a5,ce4 <__subsf3+0x356>
     c36:	8716                	mv	a4,t0
     c38:	b591                	j	a7c <__subsf3+0xee>
     c3a:	c7c1                	beqz	a5,cc2 <__subsf3+0x334>
     c3c:	40f604b3          	sub	s1,a2,a5
     c40:	040006b7          	lui	a3,0x4000
     c44:	8ee5                	and	a3,a3,s1
     c46:	c299                	beqz	a3,c4c <__subsf3+0x2be>
     c48:	8f91                	sub	a5,a5,a2
     c4a:	b7f5                	j	c36 <__subsf3+0x2a8>
     c4c:	87a6                	mv	a5,s1
     c4e:	e20497e3          	bnez	s1,a7c <__subsf3+0xee>
     c52:	4701                	li	a4,0
     c54:	bb75                	j	a10 <__subsf3+0x82>
     c56:	ee0614e3          	bnez	a2,b3e <__subsf3+0x1b0>
     c5a:	8716                	mv	a4,t0
     c5c:	e00792e3          	bnez	a5,a60 <__subsf3+0xd2>
     c60:	4701                	li	a4,0
     c62:	0ff00413          	li	s0,255
     c66:	004004b7          	lui	s1,0x400
     c6a:	b35d                	j	a10 <__subsf3+0x82>
     c6c:	40f604b3          	sub	s1,a2,a5
     c70:	040006b7          	lui	a3,0x4000
     c74:	8ee5                	and	a3,a3,s1
     c76:	ca9d                	beqz	a3,cac <__subsf3+0x31e>
     c78:	40c784b3          	sub	s1,a5,a2
     c7c:	8716                	mv	a4,t0
     c7e:	8526                	mv	a0,s1
     c80:	c03a                	sw	a4,0(sp)
     c82:	2691                	jal	fc6 <__clzsi2>
     c84:	156d                	addi	a0,a0,-5
     c86:	4702                	lw	a4,0(sp)
     c88:	00a494b3          	sll	s1,s1,a0
     c8c:	02854363          	blt	a0,s0,cb2 <__subsf3+0x324>
     c90:	8d01                	sub	a0,a0,s0
     c92:	0505                	addi	a0,a0,1
     c94:	02000693          	li	a3,32
     c98:	8e89                	sub	a3,a3,a0
     c9a:	00a4d7b3          	srl	a5,s1,a0
     c9e:	00d494b3          	sll	s1,s1,a3
     ca2:	009034b3          	snez	s1,s1
     ca6:	8fc5                	or	a5,a5,s1
     ca8:	4401                	li	s0,0
     caa:	bbc9                	j	a7c <__subsf3+0xee>
     cac:	f8e9                	bnez	s1,c7e <__subsf3+0x2f0>
     cae:	4401                	li	s0,0
     cb0:	b74d                	j	c52 <__subsf3+0x2c4>
     cb2:	fc0007b7          	lui	a5,0xfc000
     cb6:	17fd                	addi	a5,a5,-1 # fbffffff <__global_pointer$+0xdbfff7ff>
     cb8:	8c09                	sub	s0,s0,a0
     cba:	8fe5                	and	a5,a5,s1
     cbc:	b3c1                	j	a7c <__subsf3+0xee>
     cbe:	87b2                	mv	a5,a2
     cc0:	bd41                	j	b50 <__subsf3+0x1c2>
     cc2:	87b2                	mv	a5,a2
     cc4:	bb65                	j	a7c <__subsf3+0xee>
     cc6:	0037d493          	srli	s1,a5,0x3
     cca:	0ff00793          	li	a5,255
     cce:	d4f411e3          	bne	s0,a5,a10 <__subsf3+0x82>
     cd2:	d2048fe3          	beqz	s1,a10 <__subsf3+0x82>
     cd6:	004004b7          	lui	s1,0x400
     cda:	bfa5                	j	c52 <__subsf3+0x2c4>
     cdc:	0ff00413          	li	s0,255
     ce0:	4481                	li	s1,0
     ce2:	b33d                	j	a10 <__subsf3+0x82>
     ce4:	4481                	li	s1,0
     ce6:	b7b5                	j	c52 <__subsf3+0x2c4>

00000ce8 <__fixsfsi>:
     ce8:	00800637          	lui	a2,0x800
     cec:	01755713          	srli	a4,a0,0x17
     cf0:	fff60793          	addi	a5,a2,-1 # 7fffff <lib_gpioctrl.c.91833d69+0x7fdbc5>
     cf4:	0ff77713          	zext.b	a4,a4
     cf8:	07e00593          	li	a1,126
     cfc:	8fe9                	and	a5,a5,a0
     cfe:	01f55693          	srli	a3,a0,0x1f
     d02:	04e5d063          	bge	a1,a4,d42 <__fixsfsi+0x5a>
     d06:	09d00593          	li	a1,157
     d0a:	00e5d863          	bge	a1,a4,d1a <__fixsfsi+0x32>
     d0e:	80000537          	lui	a0,0x80000
     d12:	fff54513          	not	a0,a0
     d16:	9536                	add	a0,a0,a3
     d18:	8082                	ret
     d1a:	00c7e533          	or	a0,a5,a2
     d1e:	09500793          	li	a5,149
     d22:	00e7da63          	bge	a5,a4,d36 <__fixsfsi+0x4e>
     d26:	f6a70713          	addi	a4,a4,-150 # 3ffff6a <lib_gpioctrl.c.91833d69+0x3ffdb30>
     d2a:	00e51533          	sll	a0,a0,a4
     d2e:	ca99                	beqz	a3,d44 <__fixsfsi+0x5c>
     d30:	40a00533          	neg	a0,a0
     d34:	8082                	ret
     d36:	09600793          	li	a5,150
     d3a:	8f99                	sub	a5,a5,a4
     d3c:	00f55533          	srl	a0,a0,a5
     d40:	b7fd                	j	d2e <__fixsfsi+0x46>
     d42:	4501                	li	a0,0
     d44:	8082                	ret

00000d46 <__floatsisf>:
     d46:	1151                	addi	sp,sp,-12
     d48:	c406                	sw	ra,8(sp)
     d4a:	c222                	sw	s0,4(sp)
     d4c:	c026                	sw	s1,0(sp)
     d4e:	c54d                	beqz	a0,df8 <__floatsisf+0xb2>
     d50:	41f55793          	srai	a5,a0,0x1f
     d54:	00a7c433          	xor	s0,a5,a0
     d58:	8c1d                	sub	s0,s0,a5
     d5a:	01f55493          	srli	s1,a0,0x1f
     d5e:	8522                	mv	a0,s0
     d60:	249d                	jal	fc6 <__clzsi2>
     d62:	87aa                	mv	a5,a0
     d64:	09e00513          	li	a0,158
     d68:	8d1d                	sub	a0,a0,a5
     d6a:	09600713          	li	a4,150
     d6e:	02a74363          	blt	a4,a0,d94 <__floatsisf+0x4e>
     d72:	4721                	li	a4,8
     d74:	08e78563          	beq	a5,a4,dfe <__floatsisf+0xb8>
     d78:	17e1                	addi	a5,a5,-8
     d7a:	00f41433          	sll	s0,s0,a5
     d7e:	0426                	slli	s0,s0,0x9
     d80:	8025                	srli	s0,s0,0x9
     d82:	055e                	slli	a0,a0,0x17
     d84:	40a2                	lw	ra,8(sp)
     d86:	8d41                	or	a0,a0,s0
     d88:	4412                	lw	s0,4(sp)
     d8a:	04fe                	slli	s1,s1,0x1f
     d8c:	8d45                	or	a0,a0,s1
     d8e:	4482                	lw	s1,0(sp)
     d90:	0131                	addi	sp,sp,12
     d92:	8082                	ret
     d94:	09900713          	li	a4,153
     d98:	04a75863          	bge	a4,a0,de8 <__floatsisf+0xa2>
     d9c:	4695                	li	a3,5
     d9e:	01b78713          	addi	a4,a5,27
     da2:	00e41733          	sll	a4,s0,a4
     da6:	8e9d                	sub	a3,a3,a5
     da8:	00d456b3          	srl	a3,s0,a3
     dac:	00e03733          	snez	a4,a4
     db0:	00e6e433          	or	s0,a3,a4
     db4:	fc000737          	lui	a4,0xfc000
     db8:	177d                	addi	a4,a4,-1 # fbffffff <__global_pointer$+0xdbfff7ff>
     dba:	00747693          	andi	a3,s0,7
     dbe:	8f61                	and	a4,a4,s0
     dc0:	c691                	beqz	a3,dcc <__floatsisf+0x86>
     dc2:	883d                	andi	s0,s0,15
     dc4:	4691                	li	a3,4
     dc6:	00d40363          	beq	s0,a3,dcc <__floatsisf+0x86>
     dca:	0711                	addi	a4,a4,4
     dcc:	040006b7          	lui	a3,0x4000
     dd0:	8ef9                	and	a3,a3,a4
     dd2:	ca81                	beqz	a3,de2 <__floatsisf+0x9c>
     dd4:	fc0006b7          	lui	a3,0xfc000
     dd8:	16fd                	addi	a3,a3,-1 # fbffffff <__global_pointer$+0xdbfff7ff>
     dda:	09f00513          	li	a0,159
     dde:	8f75                	and	a4,a4,a3
     de0:	8d1d                	sub	a0,a0,a5
     de2:	00375413          	srli	s0,a4,0x3
     de6:	bf61                	j	d7e <__floatsisf+0x38>
     de8:	4695                	li	a3,5
     dea:	ffb78713          	addi	a4,a5,-5
     dee:	fcd783e3          	beq	a5,a3,db4 <__floatsisf+0x6e>
     df2:	00e41433          	sll	s0,s0,a4
     df6:	bf7d                	j	db4 <__floatsisf+0x6e>
     df8:	4481                	li	s1,0
     dfa:	4401                	li	s0,0
     dfc:	b749                	j	d7e <__floatsisf+0x38>
     dfe:	09600513          	li	a0,150
     e02:	bfb5                	j	d7e <__floatsisf+0x38>

00000e04 <__truncdfsf2>:
     e04:	00c59713          	slli	a4,a1,0xc
     e08:	0145d313          	srli	t1,a1,0x14
     e0c:	8325                	srli	a4,a4,0x9
     e0e:	7ff37313          	andi	t1,t1,2047
     e12:	01d55793          	srli	a5,a0,0x1d
     e16:	8fd9                	or	a5,a5,a4
     e18:	00130713          	addi	a4,t1,1
     e1c:	7fe77713          	andi	a4,a4,2046
     e20:	81fd                	srli	a1,a1,0x1f
     e22:	00351613          	slli	a2,a0,0x3
     e26:	c74d                	beqz	a4,ed0 <__truncdfsf2+0xcc>
     e28:	c8030693          	addi	a3,t1,-896
     e2c:	0fe00713          	li	a4,254
     e30:	0ed74b63          	blt	a4,a3,f26 <__truncdfsf2+0x122>
     e34:	08d04063          	bgtz	a3,eb4 <__truncdfsf2+0xb0>
     e38:	5725                	li	a4,-23
     e3a:	0ee6c963          	blt	a3,a4,f2c <__truncdfsf2+0x128>
     e3e:	008002b7          	lui	t0,0x800
     e42:	4779                	li	a4,30
     e44:	0057e2b3          	or	t0,a5,t0
     e48:	8f15                	sub	a4,a4,a3
     e4a:	47fd                	li	a5,31
     e4c:	02e7ce63          	blt	a5,a4,e88 <__truncdfsf2+0x84>
     e50:	c8230313          	addi	t1,t1,-894
     e54:	00e65733          	srl	a4,a2,a4
     e58:	00661633          	sll	a2,a2,t1
     e5c:	00c03633          	snez	a2,a2
     e60:	00629333          	sll	t1,t0,t1
     e64:	00666633          	or	a2,a2,t1
     e68:	8f51                	or	a4,a4,a2
     e6a:	00777793          	andi	a5,a4,7
     e6e:	efad                	bnez	a5,ee8 <__truncdfsf2+0xe4>
     e70:	00375793          	srli	a5,a4,0x3
     e74:	4681                	li	a3,0
     e76:	07a6                	slli	a5,a5,0x9
     e78:	01769513          	slli	a0,a3,0x17
     e7c:	83a5                	srli	a5,a5,0x9
     e7e:	8fc9                	or	a5,a5,a0
     e80:	01f59513          	slli	a0,a1,0x1f
     e84:	8d5d                	or	a0,a0,a5
     e86:	8082                	ret
     e88:	57f9                	li	a5,-2
     e8a:	8f95                	sub	a5,a5,a3
     e8c:	02000513          	li	a0,32
     e90:	00f2d7b3          	srl	a5,t0,a5
     e94:	4681                	li	a3,0
     e96:	00a70663          	beq	a4,a0,ea2 <__truncdfsf2+0x9e>
     e9a:	ca230693          	addi	a3,t1,-862
     e9e:	00d296b3          	sll	a3,t0,a3
     ea2:	8ed1                	or	a3,a3,a2
     ea4:	00d036b3          	snez	a3,a3
     ea8:	8fd5                	or	a5,a5,a3
     eaa:	0077f713          	andi	a4,a5,7
     eae:	e721                	bnez	a4,ef6 <__truncdfsf2+0xf2>
     eb0:	838d                	srli	a5,a5,0x3
     eb2:	b7c9                	j	e74 <__truncdfsf2+0x70>
     eb4:	00651713          	slli	a4,a0,0x6
     eb8:	078e                	slli	a5,a5,0x3
     eba:	00e03733          	snez	a4,a4
     ebe:	8f5d                	or	a4,a4,a5
     ec0:	8275                	srli	a2,a2,0x1d
     ec2:	8f51                	or	a4,a4,a2
     ec4:	00777793          	andi	a5,a4,7
     ec8:	ef95                	bnez	a5,f04 <__truncdfsf2+0x100>
     eca:	00375793          	srli	a5,a4,0x3
     ece:	b765                	j	e76 <__truncdfsf2+0x72>
     ed0:	04030e63          	beqz	t1,f2c <__truncdfsf2+0x128>
     ed4:	8fd1                	or	a5,a5,a2
     ed6:	0ff00693          	li	a3,255
     eda:	dfd1                	beqz	a5,e76 <__truncdfsf2+0x72>
     edc:	4581                	li	a1,0
     ede:	0ff00693          	li	a3,255
     ee2:	004007b7          	lui	a5,0x400
     ee6:	bf41                	j	e76 <__truncdfsf2+0x72>
     ee8:	00f77793          	andi	a5,a4,15
     eec:	4691                	li	a3,4
     eee:	f8d781e3          	beq	a5,a3,e70 <__truncdfsf2+0x6c>
     ef2:	4681                	li	a3,0
     ef4:	a839                	j	f12 <__truncdfsf2+0x10e>
     ef6:	00f7f713          	andi	a4,a5,15
     efa:	4691                	li	a3,4
     efc:	fad70ae3          	beq	a4,a3,eb0 <__truncdfsf2+0xac>
     f00:	0791                	addi	a5,a5,4 # 400004 <lib_gpioctrl.c.91833d69+0x3fdbca>
     f02:	b77d                	j	eb0 <__truncdfsf2+0xac>
     f04:	00f77313          	andi	t1,a4,15
     f08:	4291                	li	t0,4
     f0a:	00375793          	srli	a5,a4,0x3
     f0e:	f65304e3          	beq	t1,t0,e76 <__truncdfsf2+0x72>
     f12:	00470793          	addi	a5,a4,4
     f16:	04000737          	lui	a4,0x4000
     f1a:	8f7d                	and	a4,a4,a5
     f1c:	838d                	srli	a5,a5,0x3
     f1e:	df21                	beqz	a4,e76 <__truncdfsf2+0x72>
     f20:	0685                	addi	a3,a3,1
     f22:	4781                	li	a5,0
     f24:	bf89                	j	e76 <__truncdfsf2+0x72>
     f26:	0ff00693          	li	a3,255
     f2a:	bfe5                	j	f22 <__truncdfsf2+0x11e>
     f2c:	4681                	li	a3,0
     f2e:	bfd5                	j	f22 <__truncdfsf2+0x11e>

00000f30 <__mulsi3>:
     f30:	862a                	mv	a2,a0
     f32:	4501                	li	a0,0
     f34:	0015f693          	andi	a3,a1,1
     f38:	c291                	beqz	a3,f3c <__mulsi3+0xc>
     f3a:	9532                	add	a0,a0,a2
     f3c:	8185                	srli	a1,a1,0x1
     f3e:	0606                	slli	a2,a2,0x1
     f40:	f9f5                	bnez	a1,f34 <__mulsi3+0x4>
     f42:	8082                	ret
     f44:	0000                	unimp
	...

00000f48 <__divsi3>:
     f48:	02054e63          	bltz	a0,f84 <__umodsi3+0x8>
     f4c:	0405c363          	bltz	a1,f92 <__umodsi3+0x16>

00000f50 <__hidden___udivsi3>:
     f50:	862e                	mv	a2,a1
     f52:	85aa                	mv	a1,a0
     f54:	557d                	li	a0,-1
     f56:	c215                	beqz	a2,f7a <__hidden___udivsi3+0x2a>
     f58:	4685                	li	a3,1
     f5a:	00b67863          	bgeu	a2,a1,f6a <__hidden___udivsi3+0x1a>
     f5e:	00c05663          	blez	a2,f6a <__hidden___udivsi3+0x1a>
     f62:	0606                	slli	a2,a2,0x1
     f64:	0686                	slli	a3,a3,0x1
     f66:	feb66ce3          	bltu	a2,a1,f5e <__hidden___udivsi3+0xe>
     f6a:	4501                	li	a0,0
     f6c:	00c5e463          	bltu	a1,a2,f74 <__hidden___udivsi3+0x24>
     f70:	8d91                	sub	a1,a1,a2
     f72:	8d55                	or	a0,a0,a3
     f74:	8285                	srli	a3,a3,0x1
     f76:	8205                	srli	a2,a2,0x1
     f78:	faf5                	bnez	a3,f6c <__hidden___udivsi3+0x1c>
     f7a:	8082                	ret

00000f7c <__umodsi3>:
     f7c:	8286                	mv	t0,ra
     f7e:	3fc9                	jal	f50 <__hidden___udivsi3>
     f80:	852e                	mv	a0,a1
     f82:	8282                	jr	t0
     f84:	40a00533          	neg	a0,a0
     f88:	00b04763          	bgtz	a1,f96 <__umodsi3+0x1a>
     f8c:	40b005b3          	neg	a1,a1
     f90:	b7c1                	j	f50 <__hidden___udivsi3>
     f92:	40b005b3          	neg	a1,a1
     f96:	8286                	mv	t0,ra
     f98:	3f65                	jal	f50 <__hidden___udivsi3>
     f9a:	40a00533          	neg	a0,a0
     f9e:	8282                	jr	t0

00000fa0 <__modsi3>:
     fa0:	8286                	mv	t0,ra
     fa2:	0005c763          	bltz	a1,fb0 <__modsi3+0x10>
     fa6:	00054963          	bltz	a0,fb8 <__modsi3+0x18>
     faa:	375d                	jal	f50 <__hidden___udivsi3>
     fac:	852e                	mv	a0,a1
     fae:	8282                	jr	t0
     fb0:	40b005b3          	neg	a1,a1
     fb4:	fe055be3          	bgez	a0,faa <__modsi3+0xa>
     fb8:	40a00533          	neg	a0,a0
     fbc:	3f51                	jal	f50 <__hidden___udivsi3>
     fbe:	40b00533          	neg	a0,a1
     fc2:	8282                	jr	t0
	...

00000fc6 <__clzsi2>:
     fc6:	67c1                	lui	a5,0x10
     fc8:	02f57563          	bgeu	a0,a5,ff2 <__clzsi2+0x2c>
     fcc:	10053793          	sltiu	a5,a0,256
     fd0:	0017c793          	xori	a5,a5,1
     fd4:	078e                	slli	a5,a5,0x3
     fd6:	6705                	lui	a4,0x1
     fd8:	02000693          	li	a3,32
     fdc:	8e9d                	sub	a3,a3,a5
     fde:	00f55533          	srl	a0,a0,a5
     fe2:	7cc70793          	addi	a5,a4,1996 # 17cc <__clz_tab>
     fe6:	97aa                	add	a5,a5,a0
     fe8:	0007c503          	lbu	a0,0(a5) # 10000 <lib_gpioctrl.c.91833d69+0xdbc6>
     fec:	40a68533          	sub	a0,a3,a0
     ff0:	8082                	ret
     ff2:	01000737          	lui	a4,0x1000
     ff6:	47c1                	li	a5,16
     ff8:	fce56fe3          	bltu	a0,a4,fd6 <__clzsi2+0x10>
     ffc:	47e1                	li	a5,24
     ffe:	bfe1                	j	fd6 <__clzsi2+0x10>

00001000 <mini_pad>:
    1000:	1131                	addi	sp,sp,-20
    1002:	c426                	sw	s1,8(sp)
    1004:	c806                	sw	ra,16(sp)
    1006:	c622                	sw	s0,12(sp)
    1008:	84ae                	mv	s1,a1
    100a:	87aa                	mv	a5,a0
    100c:	85b2                	mv	a1,a2
    100e:	c699                	beqz	a3,101c <mini_pad+0x1c>
    1010:	4301                	li	t1,0
    1012:	0096d763          	bge	a3,s1,1020 <mini_pad+0x20>
    1016:	84b6                	mv	s1,a3
    1018:	4305                	li	t1,1
    101a:	a019                	j	1020 <mini_pad+0x20>
    101c:	4301                	li	t1,0
    101e:	86a6                	mv	a3,s1
    1020:	40968433          	sub	s0,a3,s1
    1024:	00045363          	bgez	s0,102a <mini_pad+0x2a>
    1028:	4401                	li	s0,0
    102a:	8622                	mv	a2,s0
    102c:	853a                	mv	a0,a4
    102e:	c23e                	sw	a5,4(sp)
    1030:	c01a                	sw	t1,0(sp)
    1032:	236d                	jal	15dc <memset>
    1034:	4302                	lw	t1,0(sp)
    1036:	4792                	lw	a5,4(sp)
    1038:	872a                	mv	a4,a0
    103a:	008506b3          	add	a3,a0,s0
    103e:	4601                	li	a2,0
    1040:	40c485b3          	sub	a1,s1,a2
    1044:	04b04263          	bgtz	a1,1088 <mini_pad+0x88>
    1048:	0004d363          	bgez	s1,104e <mini_pad+0x4e>
    104c:	4481                	li	s1,0
    104e:	009685b3          	add	a1,a3,s1
    1052:	40e58533          	sub	a0,a1,a4
    1056:	02030463          	beqz	t1,107e <mini_pad+0x7e>
    105a:	02b77263          	bgeu	a4,a1,107e <mini_pad+0x7e>
    105e:	02a00793          	li	a5,42
    1062:	fef58fa3          	sb	a5,-1(a1) # 3ffffff <lib_gpioctrl.c.91833d69+0x3ffdbc5>
    1066:	fff58693          	addi	a3,a1,-1
    106a:	00d77a63          	bgeu	a4,a3,107e <mini_pad+0x7e>
    106e:	fef58f23          	sb	a5,-2(a1)
    1072:	ffe58693          	addi	a3,a1,-2
    1076:	00d77463          	bgeu	a4,a3,107e <mini_pad+0x7e>
    107a:	fef58ea3          	sb	a5,-3(a1)
    107e:	40c2                	lw	ra,16(sp)
    1080:	4432                	lw	s0,12(sp)
    1082:	44a2                	lw	s1,8(sp)
    1084:	0151                	addi	sp,sp,20
    1086:	8082                	ret
    1088:	00c785b3          	add	a1,a5,a2
    108c:	0005c503          	lbu	a0,0(a1)
    1090:	00c685b3          	add	a1,a3,a2
    1094:	0605                	addi	a2,a2,1
    1096:	00a58023          	sb	a0,0(a1)
    109a:	b75d                	j	1040 <mini_pad+0x40>

0000109c <mini_itoa.part.0>:
    109c:	1101                	addi	sp,sp,-32
    109e:	ce06                	sw	ra,28(sp)
    10a0:	cc22                	sw	s0,24(sp)
    10a2:	ca26                	sw	s1,20(sp)
    10a4:	c002                	sw	zero,0(sp)
    10a6:	832a                	mv	t1,a0
    10a8:	00055763          	bgez	a0,10b6 <mini_itoa.part.0+0x1a>
    10ac:	e689                	bnez	a3,10b6 <mini_itoa.part.0+0x1a>
    10ae:	4785                	li	a5,1
    10b0:	40a00333          	neg	t1,a0
    10b4:	c03e                	sw	a5,0(sp)
    10b6:	8a05                	andi	a2,a2,1
    10b8:	06100413          	li	s0,97
    10bc:	c219                	beqz	a2,10c2 <mini_itoa.part.0+0x26>
    10be:	04100413          	li	s0,65
    10c2:	84ba                	mv	s1,a4
    10c4:	1459                	addi	s0,s0,-10
    10c6:	851a                	mv	a0,t1
    10c8:	c83a                	sw	a4,16(sp)
    10ca:	c21a                	sw	t1,4(sp)
    10cc:	c62e                	sw	a1,12(sp)
    10ce:	c41a                	sw	t1,8(sp)
    10d0:	3575                	jal	f7c <__umodsi3>
    10d2:	47a5                	li	a5,9
    10d4:	4322                	lw	t1,8(sp)
    10d6:	45b2                	lw	a1,12(sp)
    10d8:	4742                	lw	a4,16(sp)
    10da:	0ff57693          	zext.b	a3,a0
    10de:	06a7e163          	bltu	a5,a0,1140 <ch32v003fun.c.294c51fe+0x7>
    10e2:	03068693          	addi	a3,a3,48
    10e6:	0ff6f693          	zext.b	a3,a3
    10ea:	00148793          	addi	a5,s1,1 # 400001 <lib_gpioctrl.c.91833d69+0x3fdbc7>
    10ee:	00d48023          	sb	a3,0(s1)
    10f2:	851a                	mv	a0,t1
    10f4:	c83a                	sw	a4,16(sp)
    10f6:	c63e                	sw	a5,12(sp)
    10f8:	c42e                	sw	a1,8(sp)
    10fa:	3d99                	jal	f50 <__hidden___udivsi3>
    10fc:	4692                	lw	a3,4(sp)
    10fe:	45a2                	lw	a1,8(sp)
    1100:	47b2                	lw	a5,12(sp)
    1102:	4742                	lw	a4,16(sp)
    1104:	832a                	mv	t1,a0
    1106:	02b6fb63          	bgeu	a3,a1,113c <ch32v003fun.c.294c51fe+0x3>
    110a:	4682                	lw	a3,0(sp)
    110c:	c699                	beqz	a3,111a <mini_itoa.part.0+0x7e>
    110e:	02d00693          	li	a3,45
    1112:	00d78023          	sb	a3,0(a5)
    1116:	00248793          	addi	a5,s1,2
    111a:	40e78533          	sub	a0,a5,a4
    111e:	01f55693          	srli	a3,a0,0x1f
    1122:	96aa                	add	a3,a3,a0
    1124:	00078023          	sb	zero,0(a5)
    1128:	8685                	srai	a3,a3,0x1
    112a:	4601                	li	a2,0
    112c:	17fd                	addi	a5,a5,-1
    112e:	00d64b63          	blt	a2,a3,1144 <ch32v003fun.c.294c51fe+0xb>
    1132:	40f2                	lw	ra,28(sp)
    1134:	4462                	lw	s0,24(sp)
    1136:	44d2                	lw	s1,20(sp)
    1138:	6105                	addi	sp,sp,32
    113a:	8082                	ret
    113c:	84be                	mv	s1,a5
    113e:	b761                	j	10c6 <mini_itoa.part.0+0x2a>
    1140:	96a2                	add	a3,a3,s0
    1142:	b755                	j	10e6 <mini_itoa.part.0+0x4a>
    1144:	00c705b3          	add	a1,a4,a2
    1148:	0007c283          	lbu	t0,0(a5)
    114c:	0005c303          	lbu	t1,0(a1)
    1150:	0605                	addi	a2,a2,1
    1152:	00558023          	sb	t0,0(a1)
    1156:	00678023          	sb	t1,0(a5)
    115a:	bfc9                	j	112c <mini_itoa.part.0+0x90>

0000115c <get_joystick_values>:
inline uint16_t gpio_analog_read(const GPIO_ANALOG_CHANNEL chan)
{
	// Set rule channel conversion for single conversion on passed channel
	// GPIO_ADC1->RSQR1 = 0;
	// GPIO_ADC1->RSQR2 = 0;
	GPIO_ADC1->RSQR3 = (uint32_t)chan;
    115c:	400127b7          	lui	a5,0x40012
    1160:	40078793          	addi	a5,a5,1024 # 40012400 <__global_pointer$+0x20011c00>
    1164:	dbc8                	sw	a0,52(a5)

	GPIO_ADC1->CTLR2 |= ADC_SWSTART;
    1166:	4798                	lw	a4,8(a5)
    1168:	004006b7          	lui	a3,0x400
    116c:	8f55                	or	a4,a4,a3
    116e:	c798                	sw	a4,8(a5)
	while(!(GPIO_ADC1->STATR & ADC_EOC));
    1170:	4398                	lw	a4,0(a5)
    1172:	8b09                	andi	a4,a4,2
    1174:	df75                	beqz	a4,1170 <get_joystick_values+0x14>

	// Get the resulting data from the ADC
	return GPIO_ADC1->RDATAR;
    1176:	47fc                	lw	a5,76(a5)
{
	// Get the current value directly from the ADC Channel
	axis->cur = gpio_analog_read(chan);

	// Adjust the ends of travel if they are exceeded
	if(axis->cur > axis->max)
    1178:	0025d703          	lhu	a4,2(a1)
    117c:	07c2                	slli	a5,a5,0x10
    117e:	83c1                	srli	a5,a5,0x10
	axis->cur = gpio_analog_read(chan);
    1180:	00f59223          	sh	a5,4(a1)
	if(axis->cur > axis->max)
    1184:	00f77563          	bgeu	a4,a5,118e <get_joystick_values+0x32>
		axis->max = axis->cur;
    1188:	00f59123          	sh	a5,2(a1)
    118c:	8082                	ret
	else if (axis->cur < axis->min)
    118e:	0005d703          	lhu	a4,0(a1)
    1192:	00e7f463          	bgeu	a5,a4,119a <get_joystick_values+0x3e>
		axis->min = axis->cur;
    1196:	00f59023          	sh	a5,0(a1)
}
    119a:	8082                	ret

0000119c <get_joystick_mapped>:
/// @brief maps the raw ADC joystick values to a new range between 
/// 0 and AXIS_MAXIMUM. Also applies deadzones
/// @param joystick_axis_t, axis to remap
/// @return none
void get_joystick_mapped(joystick_axis_t *axis)
{
    119c:	1141                	addi	sp,sp,-16
    119e:	c422                	sw	s0,8(sp)
    11a0:	c226                	sw	s1,4(sp)
    11a2:	842a                	mv	s0,a0
	// Overall process of linear mapping the ADC Values
	// float slope = 1.0 * (128 - (-128)) / (1024 - 0);
	// float output = -128 + slope * (input - 0) - 128;

	// Simplified Mapping the ADC Value into the new range
	const float slope = AXIS_MAP_OUTPUT_RANGE / AXIS_MAP_INPUT_RANGE;
    11a4:	00055483          	lhu	s1,0(a0) # 80000000 <__global_pointer$+0x5ffff800>
    11a8:	00255503          	lhu	a0,2(a0)
{
    11ac:	c606                	sw	ra,12(sp)
	const float slope = AXIS_MAP_OUTPUT_RANGE / AXIS_MAP_INPUT_RANGE;
    11ae:	8d05                	sub	a0,a0,s1
    11b0:	d12ff0ef          	jal	6c2 <__floatsidf>
    11b4:	862a                	mv	a2,a0
    11b6:	86ae                	mv	a3,a1
    11b8:	8181a503          	lw	a0,-2024(gp) # 20000018 <axis_rot+0x8>
    11bc:	81c1a583          	lw	a1,-2020(gp) # 2000001c <axis_rot+0xc>
    11c0:	ee1fe0ef          	jal	a0 <__divdf3>
    11c4:	3181                	jal	e04 <__truncdfsf2>
    11c6:	c02a                	sw	a0,0(sp)
	axis->mapped = slope * (axis->cur - axis->min) - AXIS_MAP_MAXIMUM;
    11c8:	00445503          	lhu	a0,4(s0)
    11cc:	8d05                	sub	a0,a0,s1
    11ce:	3ea5                	jal	d46 <__floatsisf>
    11d0:	85aa                	mv	a1,a0
    11d2:	4502                	lw	a0,0(sp)
    11d4:	d56ff0ef          	jal	72a <__mulsf3>
    11d8:	8201a583          	lw	a1,-2016(gp) # 20000020 <axis_rot+0x10>
    11dc:	fb2ff0ef          	jal	98e <__subsf3>
    11e0:	3621                	jal	ce8 <__fixsfsi>
    11e2:	0562                	slli	a0,a0,0x18
    11e4:	8561                	srai	a0,a0,0x18

	// Apply deadzone checks
	if(axis->mapped >= AXIS_HYST_FLOOR && axis->mapped <= AXIS_HYST_CEIL)
    11e6:	00f50793          	addi	a5,a0,15
    11ea:	0ff7f793          	zext.b	a5,a5
    11ee:	4779                	li	a4,30
    11f0:	00f76363          	bltu	a4,a5,11f6 <get_joystick_mapped+0x5a>
		axis->mapped = AXIS_HYST_MIDL;
    11f4:	4501                	li	a0,0
    11f6:	00a40323          	sb	a0,6(s0)
}
    11fa:	40b2                	lw	ra,12(sp)
    11fc:	4422                	lw	s0,8(sp)
    11fe:	4492                	lw	s1,4(sp)
    1200:	0141                	addi	sp,sp,16
    1202:	8082                	ret

00001204 <gpio_set_mode>:
	GPIO_RCC->APB2PCENR |= (RCC_APB2PCENR_AFIO | (RCC_APB2PCENR_IOPxEN << byte[0]));
    1204:	400216b7          	lui	a3,0x40021
    1208:	4e90                	lw	a2,24(a3)
    120a:	4791                	li	a5,4
    120c:	00a797b3          	sll	a5,a5,a0
    1210:	8fd1                	or	a5,a5,a2
    1212:	0017e793          	ori	a5,a5,1
    1216:	ce9c                	sw	a5,24(a3)
    1218:	0ff57713          	zext.b	a4,a0
	GPIO_PORT_MAP[ byte[0] ]->CFGLR &=        ~(0x0F  << (4 * byte[1]));
    121c:	6789                	lui	a5,0x2
    121e:	070a                	slli	a4,a4,0x2
    1220:	8f078793          	addi	a5,a5,-1808 # 18f0 <GPIO_PORT_MAP>
    1224:	97ba                	add	a5,a5,a4
    1226:	4398                	lw	a4,0(a5)
    1228:	8121                	srli	a0,a0,0x8
    122a:	0ff57513          	zext.b	a0,a0
    122e:	4310                	lw	a2,0(a4)
    1230:	00251693          	slli	a3,a0,0x2
    1234:	47bd                	li	a5,15
    1236:	00d797b3          	sll	a5,a5,a3
    123a:	fff7c793          	not	a5,a5
    123e:	8ff1                	and	a5,a5,a2
    1240:	c31c                	sw	a5,0(a4)
	GPIO_PORT_MAP[ byte[0] ]->CFGLR |=  (mode & 0x0F) << (4 * byte[1]);
    1242:	4310                	lw	a2,0(a4)
    1244:	00f5f793          	andi	a5,a1,15
    1248:	00d797b3          	sll	a5,a5,a3
    124c:	8fd1                	or	a5,a5,a2
    124e:	c31c                	sw	a5,0(a4)
	if(mode == INPUT_PULLUP || mode == INPUT_PULLDOWN)
    1250:	fef5f693          	andi	a3,a1,-17
    1254:	47a1                	li	a5,8
    1256:	00f69963          	bne	a3,a5,1268 <gpio_set_mode+0x64>
	uint32_t mask = 0x01 << byte[1];          // Shift by pin number
    125a:	4785                	li	a5,1
		gpio_digital_write(pin, mode >> 4);
    125c:	8191                	srli	a1,a1,0x4
	uint32_t mask = 0x01 << byte[1];          // Shift by pin number
    125e:	00a797b3          	sll	a5,a5,a0
	if(state == GPIO_LOW) mask = mask << 16;  // Shift by 16 if LOW, to Reset
    1262:	e191                	bnez	a1,1266 <gpio_set_mode+0x62>
    1264:	07c2                	slli	a5,a5,0x10
	GPIO_PORT_MAP[ byte[0] ]->BSHR = mask;
    1266:	cb1c                	sw	a5,16(a4)
}
    1268:	8082                	ret

0000126a <internal_handle_input.constprop.0>:
    126a:	e00007b7          	lui	a5,0xe0000
    126e:	0f478793          	addi	a5,a5,244 # e00000f4 <__global_pointer$+0xbffff8f4>
    1272:	439c                	lw	a5,0(a5)
    1274:	8082                	ret

00001276 <_write.constprop.0>:
    1276:	1101                	addi	sp,sp,-32
    1278:	cc22                	sw	s0,24(sp)
    127a:	ce06                	sw	ra,28(sp)
    127c:	ca26                	sw	s1,20(sp)
    127e:	c02a                	sw	a0,0(sp)
    1280:	c802                	sw	zero,16(sp)
    1282:	842e                	mv	s0,a1
    1284:	e1f9                	bnez	a1,134a <_write.constprop.0+0xd4>
    1286:	e00007b7          	lui	a5,0xe0000
    128a:	0f478793          	addi	a5,a5,244 # e00000f4 <__global_pointer$+0xbffff8f4>
    128e:	439c                	lw	a5,0(a5)
    1290:	c789                	beqz	a5,129a <_write.constprop.0+0x24>
    1292:	0807f793          	andi	a5,a5,128
    1296:	e391                	bnez	a5,129a <_write.constprop.0+0x24>
    1298:	3fc9                	jal	126a <internal_handle_input.constprop.0>
    129a:	40f2                	lw	ra,28(sp)
    129c:	8522                	mv	a0,s0
    129e:	4462                	lw	s0,24(sp)
    12a0:	44d2                	lw	s1,20(sp)
    12a2:	6105                	addi	sp,sp,32
    12a4:	8082                	ret
    12a6:	409406b3          	sub	a3,s0,s1
    12aa:	461d                	li	a2,7
    12ac:	8736                	mv	a4,a3
    12ae:	00d65363          	bge	a2,a3,12b4 <_write.constprop.0+0x3e>
    12b2:	471d                	li	a4,7
    12b4:	00027637          	lui	a2,0x27
    12b8:	10160613          	addi	a2,a2,257 # 27101 <lib_gpioctrl.c.91833d69+0x24cc7>
    12bc:	00032583          	lw	a1,0(t1)
    12c0:	0805f513          	andi	a0,a1,128
    12c4:	ed3d                	bnez	a0,1342 <_write.constprop.0+0xcc>
    12c6:	c981                	beqz	a1,12d6 <_write.constprop.0+0x60>
    12c8:	c61a                	sw	t1,12(sp)
    12ca:	c43a                	sw	a4,8(sp)
    12cc:	c236                	sw	a3,4(sp)
    12ce:	3f71                	jal	126a <internal_handle_input.constprop.0>
    12d0:	4332                	lw	t1,12(sp)
    12d2:	4722                	lw	a4,8(sp)
    12d4:	4692                	lw	a3,4(sp)
    12d6:	0036a693          	slti	a3,a3,3
    12da:	4601                	li	a2,0
    12dc:	e299                	bnez	a3,12e2 <_write.constprop.0+0x6c>
    12de:	ffd70613          	addi	a2,a4,-3 # fffffd <lib_gpioctrl.c.91833d69+0xffdbc3>
    12e2:	4782                	lw	a5,0(sp)
    12e4:	00348593          	addi	a1,s1,3
    12e8:	0808                	addi	a0,sp,16
    12ea:	95be                	add	a1,a1,a5
    12ec:	c41a                	sw	t1,8(sp)
    12ee:	c23a                	sw	a4,4(sp)
    12f0:	2cfd                	jal	15ee <memcpy>
    12f2:	4642                	lw	a2,16(sp)
    12f4:	4782                	lw	a5,0(sp)
    12f6:	e00006b7          	lui	a3,0xe0000
    12fa:	4322                	lw	t1,8(sp)
    12fc:	4712                	lw	a4,4(sp)
    12fe:	0f868693          	addi	a3,a3,248 # e00000f8 <__global_pointer$+0xbffff8f8>
    1302:	c290                	sw	a2,0(a3)
    1304:	458d                	li	a1,3
    1306:	00978633          	add	a2,a5,s1
    130a:	4681                	li	a3,0
    130c:	00064283          	lbu	t0,0(a2)
    1310:	0685                	addi	a3,a3,1
    1312:	01068793          	addi	a5,a3,16
    1316:	00278533          	add	a0,a5,sp
    131a:	00550023          	sb	t0,0(a0)
    131e:	00d70563          	beq	a4,a3,1328 <_write.constprop.0+0xb2>
    1322:	0605                	addi	a2,a2,1
    1324:	feb694e3          	bne	a3,a1,130c <_write.constprop.0+0x96>
    1328:	00470693          	addi	a3,a4,4
    132c:	f806e693          	ori	a3,a3,-128
    1330:	00d10823          	sb	a3,16(sp)
    1334:	46c2                	lw	a3,16(sp)
    1336:	94ba                	add	s1,s1,a4
    1338:	00d32023          	sw	a3,0(t1)
    133c:	f684c5e3          	blt	s1,s0,12a6 <_write.constprop.0+0x30>
    1340:	bfa9                	j	129a <_write.constprop.0+0x24>
    1342:	167d                	addi	a2,a2,-1
    1344:	fe25                	bnez	a2,12bc <_write.constprop.0+0x46>
    1346:	8426                	mv	s0,s1
    1348:	bf89                	j	129a <_write.constprop.0+0x24>
    134a:	e0000337          	lui	t1,0xe0000
    134e:	4481                	li	s1,0
    1350:	0f430313          	addi	t1,t1,244 # e00000f4 <__global_pointer$+0xbffff8f4>
    1354:	b7e5                	j	133c <_write.constprop.0+0xc6>

00001356 <__puts_uart>:
    1356:	1151                	addi	sp,sp,-12
    1358:	c222                	sw	s0,4(sp)
    135a:	c406                	sw	ra,8(sp)
    135c:	842e                	mv	s0,a1
    135e:	3f21                	jal	1276 <_write.constprop.0>
    1360:	40a2                	lw	ra,8(sp)
    1362:	8522                	mv	a0,s0
    1364:	4412                	lw	s0,4(sp)
    1366:	0131                	addi	sp,sp,12
    1368:	8082                	ret

0000136a <handle_reset>:
    136a:	1ffff197          	auipc	gp,0x1ffff
    136e:	49618193          	addi	gp,gp,1174 # 20000800 <__global_pointer$>
    1372:	00018113          	mv	sp,gp
    1376:	08000513          	li	a0,128
    137a:	30051073          	csrw	mstatus,a0
    137e:	468d                	li	a3,3
    1380:	fffff517          	auipc	a0,0xfffff
    1384:	c8050513          	addi	a0,a0,-896 # 0 <InterruptVector>
    1388:	8d55                	or	a0,a0,a3
    138a:	30551073          	csrw	mtvec,a0
    138e:	82418513          	addi	a0,gp,-2012 # 20000024 <_ebss>
    1392:	82418593          	addi	a1,gp,-2012 # 20000024 <_ebss>
    1396:	4601                	li	a2,0
    1398:	00b55663          	bge	a0,a1,13a4 <handle_reset+0x3a>
    139c:	c110                	sw	a2,0(a0)
    139e:	0511                	addi	a0,a0,4
    13a0:	feb54ee3          	blt	a0,a1,139c <handle_reset+0x32>
    13a4:	00000517          	auipc	a0,0x0
    13a8:	55c50513          	addi	a0,a0,1372 # 1900 <_data_lma>
    13ac:	1ffff597          	auipc	a1,0x1ffff
    13b0:	c5458593          	addi	a1,a1,-940 # 20000000 <axis_ver>
    13b4:	82418613          	addi	a2,gp,-2012 # 20000024 <_ebss>
    13b8:	00c58863          	beq	a1,a2,13c8 <handle_reset+0x5e>
    13bc:	4114                	lw	a3,0(a0)
    13be:	c194                	sw	a3,0(a1)
    13c0:	0511                	addi	a0,a0,4
    13c2:	0591                	addi	a1,a1,4
    13c4:	fec59ae3          	bne	a1,a2,13b8 <handle_reset+0x4e>
    13c8:	e000f7b7          	lui	a5,0xe000f
    13cc:	4715                	li	a4,5
    13ce:	c398                	sw	a4,0(a5)
    13d0:	6785                	lui	a5,0x1
    13d2:	66c78793          	addi	a5,a5,1644 # 166c <main>
    13d6:	34179073          	csrw	mepc,a5
    13da:	30200073          	mret

000013de <ADC1_IRQHandler>:
    13de:	a001                	j	13de <ADC1_IRQHandler>

000013e0 <NMI_Handler>:
    13e0:	40021737          	lui	a4,0x40021
    13e4:	471c                	lw	a5,8(a4)
    13e6:	008006b7          	lui	a3,0x800
    13ea:	8fd5                	or	a5,a5,a3
    13ec:	c71c                	sw	a5,8(a4)

000013ee <strlen>:
    13ee:	87aa                	mv	a5,a0
    13f0:	0007c703          	lbu	a4,0(a5)
    13f4:	e701                	bnez	a4,13fc <strlen+0xe>
    13f6:	40a78533          	sub	a0,a5,a0
    13fa:	8082                	ret
    13fc:	0785                	addi	a5,a5,1
    13fe:	bfcd                	j	13f0 <strlen+0x2>

00001400 <mini_vpprintf>:
    1400:	fa410113          	addi	sp,sp,-92
    1404:	caa2                	sw	s0,84(sp)
    1406:	c8a6                	sw	s1,80(sp)
    1408:	cc86                	sw	ra,88(sp)
    140a:	c02a                	sw	a0,0(sp)
    140c:	c22e                	sw	a1,4(sp)
    140e:	8432                	mv	s0,a2
    1410:	84b6                	mv	s1,a3
    1412:	ca02                	sw	zero,20(sp)
    1414:	00044783          	lbu	a5,0(s0)
    1418:	00140693          	addi	a3,s0,1
    141c:	00f10fa3          	sb	a5,31(sp)
    1420:	eb81                	bnez	a5,1430 <mini_vpprintf+0x30>
    1422:	40e6                	lw	ra,88(sp)
    1424:	4456                	lw	s0,84(sp)
    1426:	4552                	lw	a0,20(sp)
    1428:	44c6                	lw	s1,80(sp)
    142a:	05c10113          	addi	sp,sp,92
    142e:	8082                	ret
    1430:	c636                	sw	a3,12(sp)
    1432:	02500713          	li	a4,37
    1436:	02e78063          	beq	a5,a4,1456 <mini_vpprintf+0x56>
    143a:	4612                	lw	a2,4(sp)
    143c:	4782                	lw	a5,0(sp)
    143e:	4585                	li	a1,1
    1440:	01f10513          	addi	a0,sp,31
    1444:	9782                	jalr	a5
    1446:	46b2                	lw	a3,12(sp)
    1448:	c426                	sw	s1,8(sp)
    144a:	8436                	mv	s0,a3
    144c:	47d2                	lw	a5,20(sp)
    144e:	44a2                	lw	s1,8(sp)
    1450:	97aa                	add	a5,a5,a0
    1452:	ca3e                	sw	a5,20(sp)
    1454:	b7c1                	j	1414 <mini_vpprintf+0x14>
    1456:	00144703          	lbu	a4,1(s0)
    145a:	03000613          	li	a2,48
    145e:	03000693          	li	a3,48
    1462:	00e10fa3          	sb	a4,31(sp)
    1466:	c632                	sw	a2,12(sp)
    1468:	00240793          	addi	a5,s0,2
    146c:	08d71263          	bne	a4,a3,14f0 <mini_vpprintf+0xf0>
    1470:	843e                	mv	s0,a5
    1472:	4681                	li	a3,0
    1474:	4781                	li	a5,0
    1476:	45a5                	li	a1,9
    1478:	a811                	j	148c <mini_vpprintf+0x8c>
    147a:	00279713          	slli	a4,a5,0x2
    147e:	0405                	addi	s0,s0,1
    1480:	97ba                	add	a5,a5,a4
    1482:	fff44703          	lbu	a4,-1(s0)
    1486:	0786                	slli	a5,a5,0x1
    1488:	97b2                	add	a5,a5,a2
    148a:	4685                	li	a3,1
    148c:	fd070613          	addi	a2,a4,-48 # 40020fd0 <__global_pointer$+0x200207d0>
    1490:	0ff67513          	zext.b	a0,a2
    1494:	fea5f3e3          	bgeu	a1,a0,147a <mini_vpprintf+0x7a>
    1498:	c299                	beqz	a3,149e <mini_vpprintf+0x9e>
    149a:	00e10fa3          	sb	a4,31(sp)
    149e:	c83e                	sw	a5,16(sp)
    14a0:	46e1                	li	a3,24
    14a2:	00f6d363          	bge	a3,a5,14a8 <mini_vpprintf+0xa8>
    14a6:	c836                	sw	a3,16(sp)
    14a8:	06c00613          	li	a2,108
    14ac:	4681                	li	a3,0
    14ae:	00c71863          	bne	a4,a2,14be <mini_vpprintf+0xbe>
    14b2:	00044703          	lbu	a4,0(s0)
    14b6:	4685                	li	a3,1
    14b8:	0405                	addi	s0,s0,1
    14ba:	00e10fa3          	sb	a4,31(sp)
    14be:	01f14603          	lbu	a2,31(sp)
    14c2:	06400713          	li	a4,100
    14c6:	06e60563          	beq	a2,a4,1530 <mini_vpprintf+0x130>
    14ca:	02c76763          	bltu	a4,a2,14f8 <mini_vpprintf+0xf8>
    14ce:	05800793          	li	a5,88
    14d2:	0af60063          	beq	a2,a5,1572 <mini_vpprintf+0x172>
    14d6:	06300793          	li	a5,99
    14da:	0af60d63          	beq	a2,a5,1594 <mini_vpprintf+0x194>
    14de:	d231                	beqz	a2,1422 <mini_vpprintf+0x22>
    14e0:	4612                	lw	a2,4(sp)
    14e2:	4782                	lw	a5,0(sp)
    14e4:	4585                	li	a1,1
    14e6:	01f10513          	addi	a0,sp,31
    14ea:	9782                	jalr	a5
    14ec:	c426                	sw	s1,8(sp)
    14ee:	bfb9                	j	144c <mini_vpprintf+0x4c>
    14f0:	02000693          	li	a3,32
    14f4:	c636                	sw	a3,12(sp)
    14f6:	bfad                	j	1470 <mini_vpprintf+0x70>
    14f8:	07500713          	li	a4,117
    14fc:	02e60a63          	beq	a2,a4,1530 <mini_vpprintf+0x130>
    1500:	07800713          	li	a4,120
    1504:	06e60763          	beq	a2,a4,1572 <mini_vpprintf+0x172>
    1508:	07300713          	li	a4,115
    150c:	fce61ae3          	bne	a2,a4,14e0 <mini_vpprintf+0xe0>
    1510:	cc3e                	sw	a5,24(sp)
    1512:	00448793          	addi	a5,s1,4
    1516:	4084                	lw	s1,0(s1)
    1518:	c43e                	sw	a5,8(sp)
    151a:	8526                	mv	a0,s1
    151c:	3dc9                	jal	13ee <strlen>
    151e:	47e2                	lw	a5,24(sp)
    1520:	85aa                	mv	a1,a0
    1522:	08f05663          	blez	a5,15ae <mini_vpprintf+0x1ae>
    1526:	46c2                	lw	a3,16(sp)
    1528:	4632                	lw	a2,12(sp)
    152a:	1838                	addi	a4,sp,56
    152c:	8526                	mv	a0,s1
    152e:	a01d                	j	1554 <mini_vpprintf+0x154>
    1530:	00448793          	addi	a5,s1,4
    1534:	c43e                	sw	a5,8(sp)
    1536:	c695                	beqz	a3,1562 <mini_vpprintf+0x162>
    1538:	f8b60613          	addi	a2,a2,-117
    153c:	1018                	addi	a4,sp,32
    153e:	00163693          	seqz	a3,a2
    1542:	4088                	lw	a0,0(s1)
    1544:	4601                	li	a2,0
    1546:	45a9                	li	a1,10
    1548:	3e91                	jal	109c <mini_itoa.part.0>
    154a:	46c2                	lw	a3,16(sp)
    154c:	4632                	lw	a2,12(sp)
    154e:	1838                	addi	a4,sp,56
    1550:	85aa                	mv	a1,a0
    1552:	1008                	addi	a0,sp,32
    1554:	3475                	jal	1000 <mini_pad>
    1556:	4612                	lw	a2,4(sp)
    1558:	85aa                	mv	a1,a0
    155a:	1828                	addi	a0,sp,56
    155c:	4782                	lw	a5,0(sp)
    155e:	9782                	jalr	a5
    1560:	b5f5                	j	144c <mini_vpprintf+0x4c>
    1562:	07500793          	li	a5,117
    1566:	1018                	addi	a4,sp,32
    1568:	4685                	li	a3,1
    156a:	fcf60ce3          	beq	a2,a5,1542 <mini_vpprintf+0x142>
    156e:	4681                	li	a3,0
    1570:	bfc9                	j	1542 <mini_vpprintf+0x142>
    1572:	4088                	lw	a0,0(s1)
    1574:	fa860613          	addi	a2,a2,-88
    1578:	00448793          	addi	a5,s1,4
    157c:	1018                	addi	a4,sp,32
    157e:	4685                	li	a3,1
    1580:	00163613          	seqz	a2,a2
    1584:	45c1                	li	a1,16
    1586:	c43e                	sw	a5,8(sp)
    1588:	3e11                	jal	109c <mini_itoa.part.0>
    158a:	46c2                	lw	a3,16(sp)
    158c:	4632                	lw	a2,12(sp)
    158e:	85aa                	mv	a1,a0
    1590:	1838                	addi	a4,sp,56
    1592:	b7c1                	j	1552 <mini_vpprintf+0x152>
    1594:	00448793          	addi	a5,s1,4
    1598:	c43e                	sw	a5,8(sp)
    159a:	409c                	lw	a5,0(s1)
    159c:	46c2                	lw	a3,16(sp)
    159e:	4632                	lw	a2,12(sp)
    15a0:	00f10fa3          	sb	a5,31(sp)
    15a4:	1838                	addi	a4,sp,56
    15a6:	4585                	li	a1,1
    15a8:	01f10513          	addi	a0,sp,31
    15ac:	b765                	j	1554 <mini_vpprintf+0x154>
    15ae:	4612                	lw	a2,4(sp)
    15b0:	8526                	mv	a0,s1
    15b2:	b76d                	j	155c <mini_vpprintf+0x15c>

000015b4 <printf>:
    15b4:	fdc10113          	addi	sp,sp,-36
    15b8:	ca32                	sw	a2,20(sp)
    15ba:	862a                	mv	a2,a0
    15bc:	6505                	lui	a0,0x1
    15be:	c82e                	sw	a1,16(sp)
    15c0:	cc36                	sw	a3,24(sp)
    15c2:	4581                	li	a1,0
    15c4:	0814                	addi	a3,sp,16
    15c6:	35650513          	addi	a0,a0,854 # 1356 <__puts_uart>
    15ca:	c606                	sw	ra,12(sp)
    15cc:	ce3a                	sw	a4,28(sp)
    15ce:	d03e                	sw	a5,32(sp)
    15d0:	c036                	sw	a3,0(sp)
    15d2:	353d                	jal	1400 <mini_vpprintf>
    15d4:	40b2                	lw	ra,12(sp)
    15d6:	02410113          	addi	sp,sp,36
    15da:	8082                	ret

000015dc <memset>:
    15dc:	962a                	add	a2,a2,a0
    15de:	87aa                	mv	a5,a0
    15e0:	00c79363          	bne	a5,a2,15e6 <memset+0xa>
    15e4:	8082                	ret
    15e6:	00b78023          	sb	a1,0(a5)
    15ea:	0785                	addi	a5,a5,1
    15ec:	bfd5                	j	15e0 <memset+0x4>

000015ee <memcpy>:
    15ee:	4781                	li	a5,0
    15f0:	00f61363          	bne	a2,a5,15f6 <memcpy+0x8>
    15f4:	8082                	ret
    15f6:	00f58733          	add	a4,a1,a5
    15fa:	00074683          	lbu	a3,0(a4)
    15fe:	00f50733          	add	a4,a0,a5
    1602:	0785                	addi	a5,a5,1
    1604:	00d70023          	sb	a3,0(a4)
    1608:	b7e5                	j	15f0 <memcpy+0x2>

0000160a <SystemInit>:
    160a:	400227b7          	lui	a5,0x40022
    160e:	4705                	li	a4,1
    1610:	c398                	sw	a4,0(a5)
    1612:	400217b7          	lui	a5,0x40021
    1616:	01080737          	lui	a4,0x1080
    161a:	0007a223          	sw	zero,4(a5) # 40021004 <__global_pointer$+0x20020804>
    161e:	08170713          	addi	a4,a4,129 # 1080081 <lib_gpioctrl.c.91833d69+0x107dc47>
    1622:	c398                	sw	a4,0(a5)
    1624:	009f0737          	lui	a4,0x9f0
    1628:	c798                	sw	a4,8(a5)
    162a:	40021737          	lui	a4,0x40021
    162e:	431c                	lw	a5,0(a4)
    1630:	00679693          	slli	a3,a5,0x6
    1634:	fe06dde3          	bgez	a3,162e <SystemInit+0x24>
    1638:	435c                	lw	a5,4(a4)
    163a:	400216b7          	lui	a3,0x40021
    163e:	9bf1                	andi	a5,a5,-4
    1640:	0027e793          	ori	a5,a5,2
    1644:	c35c                	sw	a5,4(a4)
    1646:	4721                	li	a4,8
    1648:	42dc                	lw	a5,4(a3)
    164a:	8bb1                	andi	a5,a5,12
    164c:	fee79ee3          	bne	a5,a4,1648 <SystemInit+0x3e>
    1650:	e00007b7          	lui	a5,0xe0000
    1654:	0f878793          	addi	a5,a5,248 # e00000f8 <__global_pointer$+0xbffff8f8>
    1658:	0007a023          	sw	zero,0(a5)
    165c:	e00007b7          	lui	a5,0xe0000
    1660:	0f478793          	addi	a5,a5,244 # e00000f4 <__global_pointer$+0xbffff8f4>
    1664:	08000713          	li	a4,128
    1668:	c398                	sw	a4,0(a5)
    166a:	8082                	ret

0000166c <main>:


/*** Main ********************************************************************/
int main()
{
    166c:	1151                	addi	sp,sp,-12
    166e:	c406                	sw	ra,8(sp)
    1670:	c222                	sw	s0,4(sp)
    1672:	c026                	sw	s1,0(sp)
	SystemInit();
    1674:	3f59                	jal	160a <SystemInit>
	
	// BTN is a Digital Input, pulled HIGH
	gpio_set_mode(BTN_TOP_PIN, INPUT_PULLUP);
    1676:	45e1                	li	a1,24
    1678:	50300513          	li	a0,1283
    167c:	3661                	jal	1204 <gpio_set_mode>

	// All Axes are Analog Input
	gpio_set_mode(GPIO_A6, INPUT_ANALOG);
    167e:	4581                	li	a1,0
    1680:	60300513          	li	a0,1539
    1684:	3641                	jal	1204 <gpio_set_mode>
	gpio_set_mode(GPIO_A1, INPUT_ANALOG);
    1686:	4581                	li	a1,0
    1688:	10000513          	li	a0,256
    168c:	3ea5                	jal	1204 <gpio_set_mode>
	gpio_set_mode(GPIO_A0, INPUT_ANALOG);
    168e:	4581                	li	a1,0
    1690:	20000513          	li	a0,512
    1694:	3e85                	jal	1204 <gpio_set_mode>
	GPIO_RCC->APB2PCENR |= RCC_APB2Periph_ADC1;
    1696:	400217b7          	lui	a5,0x40021
    169a:	4f98                	lw	a4,24(a5)
	GPIO_RCC->CFGR0 &= ~ADC_CLOCK_DIV_128;
    169c:	76c1                	lui	a3,0xffff0
    169e:	7ff68693          	addi	a3,a3,2047 # ffff07ff <__global_pointer$+0xdffeffff>
	GPIO_RCC->APB2PCENR |= RCC_APB2Periph_ADC1;
    16a2:	20076713          	ori	a4,a4,512
    16a6:	cf98                	sw	a4,24(a5)
	GPIO_RCC->CFGR0 &= ~ADC_CLOCK_DIV_128;
    16a8:	43d8                	lw	a4,4(a5)
    16aa:	8f75                	and	a4,a4,a3
    16ac:	c3d8                	sw	a4,4(a5)
	GPIO_RCC->CFGR0 |= div;
    16ae:	43d8                	lw	a4,4(a5)
	GPIO_ADC1->CTLR2 |= ADC_ADON | ADC_EXTSEL;
    16b0:	000e06b7          	lui	a3,0xe0
    16b4:	0685                	addi	a3,a3,1 # e0001 <lib_gpioctrl.c.91833d69+0xddbc7>
	GPIO_RCC->CFGR0 |= div;
    16b6:	c3d8                	sw	a4,4(a5)
	GPIO_RCC->APB2PRSTR |=  RCC_APB2Periph_ADC1;
    16b8:	47d8                	lw	a4,12(a5)
    16ba:	20076713          	ori	a4,a4,512
    16be:	c7d8                	sw	a4,12(a5)
	GPIO_RCC->APB2PRSTR &= ~RCC_APB2Periph_ADC1;
    16c0:	47d8                	lw	a4,12(a5)
    16c2:	dff77713          	andi	a4,a4,-513
    16c6:	c7d8                	sw	a4,12(a5)
	GPIO_ADC1->RSQR1 = 0;
    16c8:	400127b7          	lui	a5,0x40012
    16cc:	40078793          	addi	a5,a5,1024 # 40012400 <__global_pointer$+0x20011c00>
    16d0:	0207a623          	sw	zero,44(a5)
	GPIO_ADC1->RSQR2 = 0;
    16d4:	0207a823          	sw	zero,48(a5)
	GPIO_ADC1->SAMPTR1 = cycles;
    16d8:	36db7737          	lui	a4,0x36db7
	GPIO_ADC1->RSQR3 = 0;
    16dc:	0207aa23          	sw	zero,52(a5)
	GPIO_ADC1->SAMPTR1 = cycles;
    16e0:	db670713          	addi	a4,a4,-586 # 36db6db6 <__global_pointer$+0x16db65b6>
    16e4:	c7d8                	sw	a4,12(a5)
	GPIO_ADC1->SAMPTR2 = cycles;
    16e6:	cb98                	sw	a4,16(a5)
	GPIO_ADC1->CTLR2 |= ADC_ADON | ADC_EXTSEL;
    16e8:	4798                	lw	a4,8(a5)
    16ea:	8f55                	or	a4,a4,a3
    16ec:	c798                	sw	a4,8(a5)
	GPIO_ADC1->CTLR2 |= ADC_RSTCAL;
    16ee:	4798                	lw	a4,8(a5)
    16f0:	00876713          	ori	a4,a4,8
    16f4:	c798                	sw	a4,8(a5)
	while(GPIO_ADC1->CTLR2 & ADC_RSTCAL);
    16f6:	4798                	lw	a4,8(a5)
    16f8:	8b21                	andi	a4,a4,8
    16fa:	ff75                	bnez	a4,16f6 <main+0x8a>
	if( (GPIO_PORT_MAP[ byte[0] ]->INDR & (0x01 << byte[1])) != 0x00 ) 
    16fc:	400117b7          	lui	a5,0x40011
    1700:	40078793          	addi	a5,a5,1024 # 40011400 <__global_pointer$+0x20010c00>
    1704:	479c                	lw	a5,8(a5)
	{
		// Read the buttons state
		uint8_t btn_top = gpio_digital_read(BTN_TOP_PIN);

		// Read the potentiometer values
		get_joystick_values(AXIS_ROT_PIN, &axis_rot);
    1706:	81018593          	addi	a1,gp,-2032 # 20000010 <axis_rot>
    170a:	4519                	li	a0,6
    170c:	3c81                	jal	115c <get_joystick_values>
		get_joystick_values(AXIS_HOR_PIN, &axis_hor);
    170e:	200007b7          	lui	a5,0x20000
    1712:	00878593          	addi	a1,a5,8 # 20000008 <axis_hor>
    1716:	4505                	li	a0,1
    1718:	3491                	jal	115c <get_joystick_values>
		get_joystick_values(AXIS_VER_PIN, &axis_ver);
    171a:	20000437          	lui	s0,0x20000
    171e:	00040593          	mv	a1,s0
    1722:	4501                	li	a0,0
    1724:	3c25                	jal	115c <get_joystick_values>

		get_joystick_mapped(&axis_rot);
    1726:	81018513          	addi	a0,gp,-2032 # 20000010 <axis_rot>
    172a:	3c8d                	jal	119c <get_joystick_mapped>
		get_joystick_mapped(&axis_hor);
    172c:	200007b7          	lui	a5,0x20000
    1730:	00878513          	addi	a0,a5,8 # 20000008 <axis_hor>
    1734:	34a5                	jal	119c <get_joystick_mapped>
		get_joystick_mapped(&axis_ver);
    1736:	00040513          	mv	a0,s0
    173a:	348d                	jal	119c <get_joystick_mapped>

		printf("rot: %d\n", axis_rot.mapped);
    173c:	81018713          	addi	a4,gp,-2032 # 20000010 <axis_rot>
    1740:	00670583          	lb	a1,6(a4)
    1744:	6509                	lui	a0,0x2
    1746:	8cc50513          	addi	a0,a0,-1844 # 18cc <__clz_tab+0x100>
    174a:	35ad                	jal	15b4 <printf>
		printf("hor: %d\n", axis_hor.mapped);
    174c:	200007b7          	lui	a5,0x20000
    1750:	00878793          	addi	a5,a5,8 # 20000008 <axis_hor>
    1754:	00678583          	lb	a1,6(a5)
    1758:	6509                	lui	a0,0x2
    175a:	8d850513          	addi	a0,a0,-1832 # 18d8 <__clz_tab+0x10c>
    175e:	3d99                	jal	15b4 <printf>
		printf("ver: %d\n\n", axis_ver.mapped);
    1760:	00040413          	mv	s0,s0
    1764:	00640583          	lb	a1,6(s0) # 20000006 <axis_ver+0x6>
    1768:	6509                	lui	a0,0x2
    176a:	8e450513          	addi	a0,a0,-1820 # 18e4 <__clz_tab+0x118>
    176e:	3599                	jal	15b4 <printf>
#endif

void DelaySysTick( uint32_t n )
{
#ifdef CH32V003
	uint32_t targend = SysTick->CNT + n;
    1770:	e000f7b7          	lui	a5,0xe000f
    1774:	4798                	lw	a4,8(a5)
    1776:	0024a7b7          	lui	a5,0x24a
    177a:	f0078793          	addi	a5,a5,-256 # 249f00 <lib_gpioctrl.c.91833d69+0x247ac6>
    177e:	973e                	add	a4,a4,a5
	while( ((int32_t)( SysTick->CNT - targend )) < 0 );
    1780:	e000f6b7          	lui	a3,0xe000f
    1784:	469c                	lw	a5,8(a3)
    1786:	8f99                	sub	a5,a5,a4
    1788:	fe07cee3          	bltz	a5,1784 <main+0x118>
    178c:	bf85                	j	16fc <main+0x90>
    178e:	0000                	unimp
    1790:	06b0                	addi	a2,sp,840
    1792:	0000                	unimp
    1794:	0292                	slli	t0,t0,0x4
    1796:	0000                	unimp
    1798:	0608                	addi	a0,sp,768
    179a:	0000                	unimp
    179c:	0292                	slli	t0,t0,0x4
    179e:	0000                	unimp
    17a0:	06a2                	slli	a3,a3,0x8
    17a2:	0000                	unimp
    17a4:	0292                	slli	t0,t0,0x4
    17a6:	0000                	unimp
    17a8:	0608                	addi	a0,sp,768
    17aa:	0000                	unimp
    17ac:	06b0                	addi	a2,sp,840
    17ae:	0000                	unimp
    17b0:	06b0                	addi	a2,sp,840
    17b2:	0000                	unimp
    17b4:	06a2                	slli	a3,a3,0x8
    17b6:	0000                	unimp
    17b8:	0608                	addi	a0,sp,768
    17ba:	0000                	unimp
    17bc:	0278                	addi	a4,sp,268
    17be:	0000                	unimp
    17c0:	0278                	addi	a4,sp,268
    17c2:	0000                	unimp
    17c4:	0278                	addi	a4,sp,268
    17c6:	0000                	unimp
    17c8:	06a2                	slli	a3,a3,0x8
	...

000017cc <__clz_tab>:
    17cc:	0100 0202 0303 0303 0404 0404 0404 0404     ................
    17dc:	0505 0505 0505 0505 0505 0505 0505 0505     ................
    17ec:	0606 0606 0606 0606 0606 0606 0606 0606     ................
    17fc:	0606 0606 0606 0606 0606 0606 0606 0606     ................
    180c:	0707 0707 0707 0707 0707 0707 0707 0707     ................
    181c:	0707 0707 0707 0707 0707 0707 0707 0707     ................
    182c:	0707 0707 0707 0707 0707 0707 0707 0707     ................
    183c:	0707 0707 0707 0707 0707 0707 0707 0707     ................
    184c:	0808 0808 0808 0808 0808 0808 0808 0808     ................
    185c:	0808 0808 0808 0808 0808 0808 0808 0808     ................
    186c:	0808 0808 0808 0808 0808 0808 0808 0808     ................
    187c:	0808 0808 0808 0808 0808 0808 0808 0808     ................
    188c:	0808 0808 0808 0808 0808 0808 0808 0808     ................
    189c:	0808 0808 0808 0808 0808 0808 0808 0808     ................
    18ac:	0808 0808 0808 0808 0808 0808 0808 0808     ................
    18bc:	0808 0808 0808 0808 0808 0808 0808 0808     ................
    18cc:	6f72 3a74 2520 0a64 0000 0000 6f68 3a72     rot: %d.....hor:
    18dc:	2520 0a64 0000 0000 6576 3a72 2520 0a64      %d.....ver: %d.
    18ec:	000a 0000                                   ....

000018f0 <GPIO_PORT_MAP>:
    18f0:	0800 4001 0000 0000 1000 4001 1400 4001     ...@.......@...@
